
ctarget:     file format elf64-x86-64


Disassembly of section .init:

0000000000400bb0 <_init>:
  400bb0:	48 83 ec 08          	sub    $0x8,%rsp
  400bb4:	48 8b 05 3d 34 20 00 	mov    0x20343d(%rip),%rax        # 603ff8 <__gmon_start__>
  400bbb:	48 85 c0             	test   %rax,%rax
  400bbe:	74 02                	je     400bc2 <_init+0x12>
  400bc0:	ff d0                	callq  *%rax
  400bc2:	48 83 c4 08          	add    $0x8,%rsp
  400bc6:	c3                   	retq   

Disassembly of section .plt:

0000000000400bd0 <.plt>:
  400bd0:	ff 35 32 34 20 00    	pushq  0x203432(%rip)        # 604008 <_GLOBAL_OFFSET_TABLE_+0x8>
  400bd6:	ff 25 34 34 20 00    	jmpq   *0x203434(%rip)        # 604010 <_GLOBAL_OFFSET_TABLE_+0x10>
  400bdc:	0f 1f 40 00          	nopl   0x0(%rax)

0000000000400be0 <strcasecmp@plt>:
  400be0:	ff 25 32 34 20 00    	jmpq   *0x203432(%rip)        # 604018 <strcasecmp@GLIBC_2.2.5>
  400be6:	68 00 00 00 00       	pushq  $0x0
  400beb:	e9 e0 ff ff ff       	jmpq   400bd0 <.plt>

0000000000400bf0 <__errno_location@plt>:
  400bf0:	ff 25 2a 34 20 00    	jmpq   *0x20342a(%rip)        # 604020 <__errno_location@GLIBC_2.2.5>
  400bf6:	68 01 00 00 00       	pushq  $0x1
  400bfb:	e9 d0 ff ff ff       	jmpq   400bd0 <.plt>

0000000000400c00 <srandom@plt>:
  400c00:	ff 25 22 34 20 00    	jmpq   *0x203422(%rip)        # 604028 <srandom@GLIBC_2.2.5>
  400c06:	68 02 00 00 00       	pushq  $0x2
  400c0b:	e9 c0 ff ff ff       	jmpq   400bd0 <.plt>

0000000000400c10 <strncmp@plt>:
  400c10:	ff 25 1a 34 20 00    	jmpq   *0x20341a(%rip)        # 604030 <strncmp@GLIBC_2.2.5>
  400c16:	68 03 00 00 00       	pushq  $0x3
  400c1b:	e9 b0 ff ff ff       	jmpq   400bd0 <.plt>

0000000000400c20 <strcpy@plt>:
  400c20:	ff 25 12 34 20 00    	jmpq   *0x203412(%rip)        # 604038 <strcpy@GLIBC_2.2.5>
  400c26:	68 04 00 00 00       	pushq  $0x4
  400c2b:	e9 a0 ff ff ff       	jmpq   400bd0 <.plt>

0000000000400c30 <puts@plt>:
  400c30:	ff 25 0a 34 20 00    	jmpq   *0x20340a(%rip)        # 604040 <puts@GLIBC_2.2.5>
  400c36:	68 05 00 00 00       	pushq  $0x5
  400c3b:	e9 90 ff ff ff       	jmpq   400bd0 <.plt>

0000000000400c40 <write@plt>:
  400c40:	ff 25 02 34 20 00    	jmpq   *0x203402(%rip)        # 604048 <write@GLIBC_2.2.5>
  400c46:	68 06 00 00 00       	pushq  $0x6
  400c4b:	e9 80 ff ff ff       	jmpq   400bd0 <.plt>

0000000000400c50 <mmap@plt>:
  400c50:	ff 25 fa 33 20 00    	jmpq   *0x2033fa(%rip)        # 604050 <mmap@GLIBC_2.2.5>
  400c56:	68 07 00 00 00       	pushq  $0x7
  400c5b:	e9 70 ff ff ff       	jmpq   400bd0 <.plt>

0000000000400c60 <printf@plt>:
  400c60:	ff 25 f2 33 20 00    	jmpq   *0x2033f2(%rip)        # 604058 <printf@GLIBC_2.2.5>
  400c66:	68 08 00 00 00       	pushq  $0x8
  400c6b:	e9 60 ff ff ff       	jmpq   400bd0 <.plt>

0000000000400c70 <memset@plt>:
  400c70:	ff 25 ea 33 20 00    	jmpq   *0x2033ea(%rip)        # 604060 <memset@GLIBC_2.2.5>
  400c76:	68 09 00 00 00       	pushq  $0x9
  400c7b:	e9 50 ff ff ff       	jmpq   400bd0 <.plt>

0000000000400c80 <alarm@plt>:
  400c80:	ff 25 e2 33 20 00    	jmpq   *0x2033e2(%rip)        # 604068 <alarm@GLIBC_2.2.5>
  400c86:	68 0a 00 00 00       	pushq  $0xa
  400c8b:	e9 40 ff ff ff       	jmpq   400bd0 <.plt>

0000000000400c90 <close@plt>:
  400c90:	ff 25 da 33 20 00    	jmpq   *0x2033da(%rip)        # 604070 <close@GLIBC_2.2.5>
  400c96:	68 0b 00 00 00       	pushq  $0xb
  400c9b:	e9 30 ff ff ff       	jmpq   400bd0 <.plt>

0000000000400ca0 <read@plt>:
  400ca0:	ff 25 d2 33 20 00    	jmpq   *0x2033d2(%rip)        # 604078 <read@GLIBC_2.2.5>
  400ca6:	68 0c 00 00 00       	pushq  $0xc
  400cab:	e9 20 ff ff ff       	jmpq   400bd0 <.plt>

0000000000400cb0 <signal@plt>:
  400cb0:	ff 25 ca 33 20 00    	jmpq   *0x2033ca(%rip)        # 604080 <signal@GLIBC_2.2.5>
  400cb6:	68 0d 00 00 00       	pushq  $0xd
  400cbb:	e9 10 ff ff ff       	jmpq   400bd0 <.plt>

0000000000400cc0 <gethostbyname@plt>:
  400cc0:	ff 25 c2 33 20 00    	jmpq   *0x2033c2(%rip)        # 604088 <gethostbyname@GLIBC_2.2.5>
  400cc6:	68 0e 00 00 00       	pushq  $0xe
  400ccb:	e9 00 ff ff ff       	jmpq   400bd0 <.plt>

0000000000400cd0 <fprintf@plt>:
  400cd0:	ff 25 ba 33 20 00    	jmpq   *0x2033ba(%rip)        # 604090 <fprintf@GLIBC_2.2.5>
  400cd6:	68 0f 00 00 00       	pushq  $0xf
  400cdb:	e9 f0 fe ff ff       	jmpq   400bd0 <.plt>

0000000000400ce0 <strtol@plt>:
  400ce0:	ff 25 b2 33 20 00    	jmpq   *0x2033b2(%rip)        # 604098 <strtol@GLIBC_2.2.5>
  400ce6:	68 10 00 00 00       	pushq  $0x10
  400ceb:	e9 e0 fe ff ff       	jmpq   400bd0 <.plt>

0000000000400cf0 <memcpy@plt>:
  400cf0:	ff 25 aa 33 20 00    	jmpq   *0x2033aa(%rip)        # 6040a0 <memcpy@GLIBC_2.14>
  400cf6:	68 11 00 00 00       	pushq  $0x11
  400cfb:	e9 d0 fe ff ff       	jmpq   400bd0 <.plt>

0000000000400d00 <time@plt>:
  400d00:	ff 25 a2 33 20 00    	jmpq   *0x2033a2(%rip)        # 6040a8 <time@GLIBC_2.2.5>
  400d06:	68 12 00 00 00       	pushq  $0x12
  400d0b:	e9 c0 fe ff ff       	jmpq   400bd0 <.plt>

0000000000400d10 <random@plt>:
  400d10:	ff 25 9a 33 20 00    	jmpq   *0x20339a(%rip)        # 6040b0 <random@GLIBC_2.2.5>
  400d16:	68 13 00 00 00       	pushq  $0x13
  400d1b:	e9 b0 fe ff ff       	jmpq   400bd0 <.plt>

0000000000400d20 <_IO_getc@plt>:
  400d20:	ff 25 92 33 20 00    	jmpq   *0x203392(%rip)        # 6040b8 <_IO_getc@GLIBC_2.2.5>
  400d26:	68 14 00 00 00       	pushq  $0x14
  400d2b:	e9 a0 fe ff ff       	jmpq   400bd0 <.plt>

0000000000400d30 <__isoc99_sscanf@plt>:
  400d30:	ff 25 8a 33 20 00    	jmpq   *0x20338a(%rip)        # 6040c0 <__isoc99_sscanf@GLIBC_2.7>
  400d36:	68 15 00 00 00       	pushq  $0x15
  400d3b:	e9 90 fe ff ff       	jmpq   400bd0 <.plt>

0000000000400d40 <munmap@plt>:
  400d40:	ff 25 82 33 20 00    	jmpq   *0x203382(%rip)        # 6040c8 <munmap@GLIBC_2.2.5>
  400d46:	68 16 00 00 00       	pushq  $0x16
  400d4b:	e9 80 fe ff ff       	jmpq   400bd0 <.plt>

0000000000400d50 <bcopy@plt>:
  400d50:	ff 25 7a 33 20 00    	jmpq   *0x20337a(%rip)        # 6040d0 <bcopy@GLIBC_2.2.5>
  400d56:	68 17 00 00 00       	pushq  $0x17
  400d5b:	e9 70 fe ff ff       	jmpq   400bd0 <.plt>

0000000000400d60 <fopen@plt>:
  400d60:	ff 25 72 33 20 00    	jmpq   *0x203372(%rip)        # 6040d8 <fopen@GLIBC_2.2.5>
  400d66:	68 18 00 00 00       	pushq  $0x18
  400d6b:	e9 60 fe ff ff       	jmpq   400bd0 <.plt>

0000000000400d70 <getopt@plt>:
  400d70:	ff 25 6a 33 20 00    	jmpq   *0x20336a(%rip)        # 6040e0 <getopt@GLIBC_2.2.5>
  400d76:	68 19 00 00 00       	pushq  $0x19
  400d7b:	e9 50 fe ff ff       	jmpq   400bd0 <.plt>

0000000000400d80 <strtoul@plt>:
  400d80:	ff 25 62 33 20 00    	jmpq   *0x203362(%rip)        # 6040e8 <strtoul@GLIBC_2.2.5>
  400d86:	68 1a 00 00 00       	pushq  $0x1a
  400d8b:	e9 40 fe ff ff       	jmpq   400bd0 <.plt>

0000000000400d90 <gethostname@plt>:
  400d90:	ff 25 5a 33 20 00    	jmpq   *0x20335a(%rip)        # 6040f0 <gethostname@GLIBC_2.2.5>
  400d96:	68 1b 00 00 00       	pushq  $0x1b
  400d9b:	e9 30 fe ff ff       	jmpq   400bd0 <.plt>

0000000000400da0 <sprintf@plt>:
  400da0:	ff 25 52 33 20 00    	jmpq   *0x203352(%rip)        # 6040f8 <sprintf@GLIBC_2.2.5>
  400da6:	68 1c 00 00 00       	pushq  $0x1c
  400dab:	e9 20 fe ff ff       	jmpq   400bd0 <.plt>

0000000000400db0 <exit@plt>:
  400db0:	ff 25 4a 33 20 00    	jmpq   *0x20334a(%rip)        # 604100 <exit@GLIBC_2.2.5>
  400db6:	68 1d 00 00 00       	pushq  $0x1d
  400dbb:	e9 10 fe ff ff       	jmpq   400bd0 <.plt>

0000000000400dc0 <connect@plt>:
  400dc0:	ff 25 42 33 20 00    	jmpq   *0x203342(%rip)        # 604108 <connect@GLIBC_2.2.5>
  400dc6:	68 1e 00 00 00       	pushq  $0x1e
  400dcb:	e9 00 fe ff ff       	jmpq   400bd0 <.plt>

0000000000400dd0 <socket@plt>:
  400dd0:	ff 25 3a 33 20 00    	jmpq   *0x20333a(%rip)        # 604110 <socket@GLIBC_2.2.5>
  400dd6:	68 1f 00 00 00       	pushq  $0x1f
  400ddb:	e9 f0 fd ff ff       	jmpq   400bd0 <.plt>

Disassembly of section .text:

0000000000400de0 <_start>:
  400de0:	31 ed                	xor    %ebp,%ebp
  400de2:	49 89 d1             	mov    %rdx,%r9
  400de5:	5e                   	pop    %rsi
  400de6:	48 89 e2             	mov    %rsp,%rdx
  400de9:	48 83 e4 f0          	and    $0xfffffffffffffff0,%rsp
  400ded:	50                   	push   %rax
  400dee:	54                   	push   %rsp
  400def:	49 c7 c0 50 2c 40 00 	mov    $0x402c50,%r8
  400df6:	48 c7 c1 e0 2b 40 00 	mov    $0x402be0,%rcx
  400dfd:	48 c7 c7 ba 10 40 00 	mov    $0x4010ba,%rdi
  400e04:	ff 15 e6 31 20 00    	callq  *0x2031e6(%rip)        # 603ff0 <__libc_start_main@GLIBC_2.2.5>
  400e0a:	f4                   	hlt    
  400e0b:	0f 1f 44 00 00       	nopl   0x0(%rax,%rax,1)

0000000000400e10 <deregister_tm_clones>:
  400e10:	b8 97 44 60 00       	mov    $0x604497,%eax
  400e15:	55                   	push   %rbp
  400e16:	48 2d 90 44 60 00    	sub    $0x604490,%rax
  400e1c:	48 83 f8 0e          	cmp    $0xe,%rax
  400e20:	48 89 e5             	mov    %rsp,%rbp
  400e23:	76 1b                	jbe    400e40 <deregister_tm_clones+0x30>
  400e25:	b8 00 00 00 00       	mov    $0x0,%eax
  400e2a:	48 85 c0             	test   %rax,%rax
  400e2d:	74 11                	je     400e40 <deregister_tm_clones+0x30>
  400e2f:	5d                   	pop    %rbp
  400e30:	bf 90 44 60 00       	mov    $0x604490,%edi
  400e35:	ff e0                	jmpq   *%rax
  400e37:	66 0f 1f 84 00 00 00 	nopw   0x0(%rax,%rax,1)
  400e3e:	00 00 
  400e40:	5d                   	pop    %rbp
  400e41:	c3                   	retq   
  400e42:	0f 1f 40 00          	nopl   0x0(%rax)
  400e46:	66 2e 0f 1f 84 00 00 	nopw   %cs:0x0(%rax,%rax,1)
  400e4d:	00 00 00 

0000000000400e50 <register_tm_clones>:
  400e50:	be 90 44 60 00       	mov    $0x604490,%esi
  400e55:	55                   	push   %rbp
  400e56:	48 81 ee 90 44 60 00 	sub    $0x604490,%rsi
  400e5d:	48 c1 fe 03          	sar    $0x3,%rsi
  400e61:	48 89 e5             	mov    %rsp,%rbp
  400e64:	48 89 f0             	mov    %rsi,%rax
  400e67:	48 c1 e8 3f          	shr    $0x3f,%rax
  400e6b:	48 01 c6             	add    %rax,%rsi
  400e6e:	48 d1 fe             	sar    %rsi
  400e71:	74 15                	je     400e88 <register_tm_clones+0x38>
  400e73:	b8 00 00 00 00       	mov    $0x0,%eax
  400e78:	48 85 c0             	test   %rax,%rax
  400e7b:	74 0b                	je     400e88 <register_tm_clones+0x38>
  400e7d:	5d                   	pop    %rbp
  400e7e:	bf 90 44 60 00       	mov    $0x604490,%edi
  400e83:	ff e0                	jmpq   *%rax
  400e85:	0f 1f 00             	nopl   (%rax)
  400e88:	5d                   	pop    %rbp
  400e89:	c3                   	retq   
  400e8a:	66 0f 1f 44 00 00    	nopw   0x0(%rax,%rax,1)

0000000000400e90 <__do_global_dtors_aux>:
  400e90:	80 3d 31 36 20 00 00 	cmpb   $0x0,0x203631(%rip)        # 6044c8 <completed.6972>
  400e97:	75 11                	jne    400eaa <__do_global_dtors_aux+0x1a>
  400e99:	55                   	push   %rbp
  400e9a:	48 89 e5             	mov    %rsp,%rbp
  400e9d:	e8 6e ff ff ff       	callq  400e10 <deregister_tm_clones>
  400ea2:	5d                   	pop    %rbp
  400ea3:	c6 05 1e 36 20 00 01 	movb   $0x1,0x20361e(%rip)        # 6044c8 <completed.6972>
  400eaa:	f3 c3                	repz retq 
  400eac:	0f 1f 40 00          	nopl   0x0(%rax)

0000000000400eb0 <frame_dummy>:
  400eb0:	bf 18 3e 60 00       	mov    $0x603e18,%edi
  400eb5:	48 83 3f 00          	cmpq   $0x0,(%rdi)
  400eb9:	75 05                	jne    400ec0 <frame_dummy+0x10>
  400ebb:	eb 93                	jmp    400e50 <register_tm_clones>
  400ebd:	0f 1f 00             	nopl   (%rax)
  400ec0:	b8 00 00 00 00       	mov    $0x0,%eax
  400ec5:	48 85 c0             	test   %rax,%rax
  400ec8:	74 f1                	je     400ebb <frame_dummy+0xb>
  400eca:	55                   	push   %rbp
  400ecb:	48 89 e5             	mov    %rsp,%rbp
  400ece:	ff d0                	callq  *%rax
  400ed0:	5d                   	pop    %rbp
  400ed1:	e9 7a ff ff ff       	jmpq   400e50 <register_tm_clones>

0000000000400ed6 <usage>:
  400ed6:	48 83 ec 08          	sub    $0x8,%rsp
  400eda:	48 89 fe             	mov    %rdi,%rsi
  400edd:	83 3d 24 36 20 00 00 	cmpl   $0x0,0x203624(%rip)        # 604508 <is_checker>
  400ee4:	74 4b                	je     400f31 <usage+0x5b>
  400ee6:	48 8d 3d 7b 1d 00 00 	lea    0x1d7b(%rip),%rdi        # 402c68 <_IO_stdin_used+0x8>
  400eed:	b8 00 00 00 00       	mov    $0x0,%eax
  400ef2:	e8 69 fd ff ff       	callq  400c60 <printf@plt>
  400ef7:	48 8d 3d a2 1d 00 00 	lea    0x1da2(%rip),%rdi        # 402ca0 <_IO_stdin_used+0x40>
  400efe:	e8 2d fd ff ff       	callq  400c30 <puts@plt>
  400f03:	48 8d 3d 0e 1f 00 00 	lea    0x1f0e(%rip),%rdi        # 402e18 <_IO_stdin_used+0x1b8>
  400f0a:	e8 21 fd ff ff       	callq  400c30 <puts@plt>
  400f0f:	48 8d 3d b2 1d 00 00 	lea    0x1db2(%rip),%rdi        # 402cc8 <_IO_stdin_used+0x68>
  400f16:	e8 15 fd ff ff       	callq  400c30 <puts@plt>
  400f1b:	48 8d 3d 10 1f 00 00 	lea    0x1f10(%rip),%rdi        # 402e32 <_IO_stdin_used+0x1d2>
  400f22:	e8 09 fd ff ff       	callq  400c30 <puts@plt>
  400f27:	bf 00 00 00 00       	mov    $0x0,%edi
  400f2c:	e8 7f fe ff ff       	callq  400db0 <exit@plt>
  400f31:	48 8d 3d 16 1f 00 00 	lea    0x1f16(%rip),%rdi        # 402e4e <_IO_stdin_used+0x1ee>
  400f38:	b8 00 00 00 00       	mov    $0x0,%eax
  400f3d:	e8 1e fd ff ff       	callq  400c60 <printf@plt>
  400f42:	48 8d 3d a7 1d 00 00 	lea    0x1da7(%rip),%rdi        # 402cf0 <_IO_stdin_used+0x90>
  400f49:	e8 e2 fc ff ff       	callq  400c30 <puts@plt>
  400f4e:	48 8d 3d c3 1d 00 00 	lea    0x1dc3(%rip),%rdi        # 402d18 <_IO_stdin_used+0xb8>
  400f55:	e8 d6 fc ff ff       	callq  400c30 <puts@plt>
  400f5a:	48 8d 3d 0b 1f 00 00 	lea    0x1f0b(%rip),%rdi        # 402e6c <_IO_stdin_used+0x20c>
  400f61:	e8 ca fc ff ff       	callq  400c30 <puts@plt>
  400f66:	eb bf                	jmp    400f27 <usage+0x51>

0000000000400f68 <initialize_target>:
  400f68:	55                   	push   %rbp
  400f69:	53                   	push   %rbx
  400f6a:	48 81 ec 08 21 00 00 	sub    $0x2108,%rsp
  400f71:	89 f5                	mov    %esi,%ebp
  400f73:	89 3d 7f 35 20 00    	mov    %edi,0x20357f(%rip)        # 6044f8 <check_level>
  400f79:	8b 3d b1 31 20 00    	mov    0x2031b1(%rip),%edi        # 604130 <target_id>
  400f7f:	e8 3c 1c 00 00       	callq  402bc0 <gencookie>
  400f84:	89 05 7a 35 20 00    	mov    %eax,0x20357a(%rip)        # 604504 <cookie>
  400f8a:	89 c7                	mov    %eax,%edi
  400f8c:	e8 2f 1c 00 00       	callq  402bc0 <gencookie>
  400f91:	89 05 69 35 20 00    	mov    %eax,0x203569(%rip)        # 604500 <authkey>
  400f97:	8b 05 93 31 20 00    	mov    0x203193(%rip),%eax        # 604130 <target_id>
  400f9d:	8d 78 01             	lea    0x1(%rax),%edi
  400fa0:	e8 5b fc ff ff       	callq  400c00 <srandom@plt>
  400fa5:	e8 66 fd ff ff       	callq  400d10 <random@plt>
  400faa:	89 c7                	mov    %eax,%edi
  400fac:	e8 f0 02 00 00       	callq  4012a1 <scramble>
  400fb1:	89 c3                	mov    %eax,%ebx
  400fb3:	85 ed                	test   %ebp,%ebp
  400fb5:	75 3d                	jne    400ff4 <initialize_target+0x8c>
  400fb7:	b8 00 00 00 00       	mov    $0x0,%eax
  400fbc:	01 d8                	add    %ebx,%eax
  400fbe:	0f b7 c0             	movzwl %ax,%eax
  400fc1:	8d 04 c5 00 01 00 00 	lea    0x100(,%rax,8),%eax
  400fc8:	89 c0                	mov    %eax,%eax
  400fca:	48 89 05 af 34 20 00 	mov    %rax,0x2034af(%rip)        # 604480 <buf_offset>
  400fd1:	c6 05 50 41 20 00 63 	movb   $0x63,0x204150(%rip)        # 605128 <target_prefix>
  400fd8:	83 3d a9 34 20 00 00 	cmpl   $0x0,0x2034a9(%rip)        # 604488 <notify>
  400fdf:	74 09                	je     400fea <initialize_target+0x82>
  400fe1:	83 3d 20 35 20 00 00 	cmpl   $0x0,0x203520(%rip)        # 604508 <is_checker>
  400fe8:	74 22                	je     40100c <initialize_target+0xa4>
  400fea:	48 81 c4 08 21 00 00 	add    $0x2108,%rsp
  400ff1:	5b                   	pop    %rbx
  400ff2:	5d                   	pop    %rbp
  400ff3:	c3                   	retq   
  400ff4:	bf 00 00 00 00       	mov    $0x0,%edi
  400ff9:	e8 02 fd ff ff       	callq  400d00 <time@plt>
  400ffe:	89 c7                	mov    %eax,%edi
  401000:	e8 fb fb ff ff       	callq  400c00 <srandom@plt>
  401005:	e8 06 fd ff ff       	callq  400d10 <random@plt>
  40100a:	eb b0                	jmp    400fbc <initialize_target+0x54>
  40100c:	48 89 e7             	mov    %rsp,%rdi
  40100f:	be 00 01 00 00       	mov    $0x100,%esi
  401014:	e8 77 fd ff ff       	callq  400d90 <gethostname@plt>
  401019:	89 c5                	mov    %eax,%ebp
  40101b:	85 c0                	test   %eax,%eax
  40101d:	75 26                	jne    401045 <initialize_target+0xdd>
  40101f:	89 c3                	mov    %eax,%ebx
  401021:	48 63 c3             	movslq %ebx,%rax
  401024:	48 8d 15 35 31 20 00 	lea    0x203135(%rip),%rdx        # 604160 <host_table>
  40102b:	48 8b 3c c2          	mov    (%rdx,%rax,8),%rdi
  40102f:	48 85 ff             	test   %rdi,%rdi
  401032:	74 2c                	je     401060 <initialize_target+0xf8>
  401034:	48 89 e6             	mov    %rsp,%rsi
  401037:	e8 a4 fb ff ff       	callq  400be0 <strcasecmp@plt>
  40103c:	85 c0                	test   %eax,%eax
  40103e:	74 1b                	je     40105b <initialize_target+0xf3>
  401040:	83 c3 01             	add    $0x1,%ebx
  401043:	eb dc                	jmp    401021 <initialize_target+0xb9>
  401045:	48 8d 3d fc 1c 00 00 	lea    0x1cfc(%rip),%rdi        # 402d48 <_IO_stdin_used+0xe8>
  40104c:	e8 df fb ff ff       	callq  400c30 <puts@plt>
  401051:	bf 08 00 00 00       	mov    $0x8,%edi
  401056:	e8 55 fd ff ff       	callq  400db0 <exit@plt>
  40105b:	bd 01 00 00 00       	mov    $0x1,%ebp
  401060:	85 ed                	test   %ebp,%ebp
  401062:	74 38                	je     40109c <initialize_target+0x134>
  401064:	48 8d bc 24 00 01 00 	lea    0x100(%rsp),%rdi
  40106b:	00 
  40106c:	e8 d4 18 00 00       	callq  402945 <init_driver>
  401071:	85 c0                	test   %eax,%eax
  401073:	0f 89 71 ff ff ff    	jns    400fea <initialize_target+0x82>
  401079:	48 8d b4 24 00 01 00 	lea    0x100(%rsp),%rsi
  401080:	00 
  401081:	48 8d 3d 38 1d 00 00 	lea    0x1d38(%rip),%rdi        # 402dc0 <_IO_stdin_used+0x160>
  401088:	b8 00 00 00 00       	mov    $0x0,%eax
  40108d:	e8 ce fb ff ff       	callq  400c60 <printf@plt>
  401092:	bf 08 00 00 00       	mov    $0x8,%edi
  401097:	e8 14 fd ff ff       	callq  400db0 <exit@plt>
  40109c:	48 89 e6             	mov    %rsp,%rsi
  40109f:	48 8d 3d da 1c 00 00 	lea    0x1cda(%rip),%rdi        # 402d80 <_IO_stdin_used+0x120>
  4010a6:	b8 00 00 00 00       	mov    $0x0,%eax
  4010ab:	e8 b0 fb ff ff       	callq  400c60 <printf@plt>
  4010b0:	bf 08 00 00 00       	mov    $0x8,%edi
  4010b5:	e8 f6 fc ff ff       	callq  400db0 <exit@plt>

00000000004010ba <main>:
  4010ba:	41 56                	push   %r14
  4010bc:	41 55                	push   %r13
  4010be:	41 54                	push   %r12
  4010c0:	55                   	push   %rbp
  4010c1:	53                   	push   %rbx
  4010c2:	41 89 fc             	mov    %edi,%r12d
  4010c5:	48 89 f3             	mov    %rsi,%rbx
  4010c8:	48 c7 c6 eb 1c 40 00 	mov    $0x401ceb,%rsi
  4010cf:	bf 0b 00 00 00       	mov    $0xb,%edi
  4010d4:	e8 d7 fb ff ff       	callq  400cb0 <signal@plt>
  4010d9:	48 c7 c6 97 1c 40 00 	mov    $0x401c97,%rsi
  4010e0:	bf 07 00 00 00       	mov    $0x7,%edi
  4010e5:	e8 c6 fb ff ff       	callq  400cb0 <signal@plt>
  4010ea:	48 c7 c6 3f 1d 40 00 	mov    $0x401d3f,%rsi
  4010f1:	bf 04 00 00 00       	mov    $0x4,%edi
  4010f6:	e8 b5 fb ff ff       	callq  400cb0 <signal@plt>
  4010fb:	83 3d 06 34 20 00 00 	cmpl   $0x0,0x203406(%rip)        # 604508 <is_checker>
  401102:	75 58                	jne    40115c <main+0xa2>
  401104:	48 8d 2d 7a 1d 00 00 	lea    0x1d7a(%rip),%rbp        # 402e85 <_IO_stdin_used+0x225>
  40110b:	48 8b 05 8e 33 20 00 	mov    0x20338e(%rip),%rax        # 6044a0 <stdin@@GLIBC_2.2.5>
  401112:	48 89 05 d7 33 20 00 	mov    %rax,0x2033d7(%rip)        # 6044f0 <infile>
  401119:	41 bd 00 00 00 00    	mov    $0x0,%r13d
  40111f:	41 be 00 00 00 00    	mov    $0x0,%r14d
  401125:	48 89 ea             	mov    %rbp,%rdx
  401128:	48 89 de             	mov    %rbx,%rsi
  40112b:	44 89 e7             	mov    %r12d,%edi
  40112e:	e8 3d fc ff ff       	callq  400d70 <getopt@plt>
  401133:	3c ff                	cmp    $0xff,%al
  401135:	0f 84 f8 00 00 00    	je     401233 <main+0x179>
  40113b:	0f be f0             	movsbl %al,%esi
  40113e:	83 e8 61             	sub    $0x61,%eax
  401141:	3c 10                	cmp    $0x10,%al
  401143:	0f 87 d1 00 00 00    	ja     40121a <main+0x160>
  401149:	0f b6 c0             	movzbl %al,%eax
  40114c:	48 8d 15 7d 1d 00 00 	lea    0x1d7d(%rip),%rdx        # 402ed0 <_IO_stdin_used+0x270>
  401153:	48 63 04 82          	movslq (%rdx,%rax,4),%rax
  401157:	48 01 d0             	add    %rdx,%rax
  40115a:	ff e0                	jmpq   *%rax
  40115c:	48 c7 c6 93 1d 40 00 	mov    $0x401d93,%rsi
  401163:	bf 0e 00 00 00       	mov    $0xe,%edi
  401168:	e8 43 fb ff ff       	callq  400cb0 <signal@plt>
  40116d:	bf 05 00 00 00       	mov    $0x5,%edi
  401172:	e8 09 fb ff ff       	callq  400c80 <alarm@plt>
  401177:	48 8d 2d 0c 1d 00 00 	lea    0x1d0c(%rip),%rbp        # 402e8a <_IO_stdin_used+0x22a>
  40117e:	eb 8b                	jmp    40110b <main+0x51>
  401180:	48 8b 3b             	mov    (%rbx),%rdi
  401183:	e8 4e fd ff ff       	callq  400ed6 <usage>
  401188:	48 8d 35 7e 1f 00 00 	lea    0x1f7e(%rip),%rsi        # 40310d <_IO_stdin_used+0x4ad>
  40118f:	48 8b 3d 12 33 20 00 	mov    0x203312(%rip),%rdi        # 6044a8 <optarg@@GLIBC_2.2.5>
  401196:	e8 c5 fb ff ff       	callq  400d60 <fopen@plt>
  40119b:	48 89 05 4e 33 20 00 	mov    %rax,0x20334e(%rip)        # 6044f0 <infile>
  4011a2:	48 85 c0             	test   %rax,%rax
  4011a5:	0f 85 7a ff ff ff    	jne    401125 <main+0x6b>
  4011ab:	48 8b 15 f6 32 20 00 	mov    0x2032f6(%rip),%rdx        # 6044a8 <optarg@@GLIBC_2.2.5>
  4011b2:	48 8d 35 d9 1c 00 00 	lea    0x1cd9(%rip),%rsi        # 402e92 <_IO_stdin_used+0x232>
  4011b9:	48 8b 3d 00 33 20 00 	mov    0x203300(%rip),%rdi        # 6044c0 <stderr@@GLIBC_2.2.5>
  4011c0:	e8 0b fb ff ff       	callq  400cd0 <fprintf@plt>
  4011c5:	b8 01 00 00 00       	mov    $0x1,%eax
  4011ca:	e9 c9 00 00 00       	jmpq   401298 <main+0x1de>
  4011cf:	ba 10 00 00 00       	mov    $0x10,%edx
  4011d4:	be 00 00 00 00       	mov    $0x0,%esi
  4011d9:	48 8b 3d c8 32 20 00 	mov    0x2032c8(%rip),%rdi        # 6044a8 <optarg@@GLIBC_2.2.5>
  4011e0:	e8 9b fb ff ff       	callq  400d80 <strtoul@plt>
  4011e5:	41 89 c6             	mov    %eax,%r14d
  4011e8:	e9 38 ff ff ff       	jmpq   401125 <main+0x6b>
  4011ed:	ba 0a 00 00 00       	mov    $0xa,%edx
  4011f2:	be 00 00 00 00       	mov    $0x0,%esi
  4011f7:	48 8b 3d aa 32 20 00 	mov    0x2032aa(%rip),%rdi        # 6044a8 <optarg@@GLIBC_2.2.5>
  4011fe:	e8 dd fa ff ff       	callq  400ce0 <strtol@plt>
  401203:	41 89 c5             	mov    %eax,%r13d
  401206:	e9 1a ff ff ff       	jmpq   401125 <main+0x6b>
  40120b:	c7 05 73 32 20 00 00 	movl   $0x0,0x203273(%rip)        # 604488 <notify>
  401212:	00 00 00 
  401215:	e9 0b ff ff ff       	jmpq   401125 <main+0x6b>
  40121a:	48 8d 3d 8e 1c 00 00 	lea    0x1c8e(%rip),%rdi        # 402eaf <_IO_stdin_used+0x24f>
  401221:	b8 00 00 00 00       	mov    $0x0,%eax
  401226:	e8 35 fa ff ff       	callq  400c60 <printf@plt>
  40122b:	48 8b 3b             	mov    (%rbx),%rdi
  40122e:	e8 a3 fc ff ff       	callq  400ed6 <usage>
  401233:	be 00 00 00 00       	mov    $0x0,%esi
  401238:	44 89 ef             	mov    %r13d,%edi
  40123b:	e8 28 fd ff ff       	callq  400f68 <initialize_target>
  401240:	83 3d c1 32 20 00 00 	cmpl   $0x0,0x2032c1(%rip)        # 604508 <is_checker>
  401247:	74 27                	je     401270 <main+0x1b6>
  401249:	44 3b 35 b0 32 20 00 	cmp    0x2032b0(%rip),%r14d        # 604500 <authkey>
  401250:	74 1e                	je     401270 <main+0x1b6>
  401252:	44 89 f6             	mov    %r14d,%esi
  401255:	48 8d 3d 8c 1b 00 00 	lea    0x1b8c(%rip),%rdi        # 402de8 <_IO_stdin_used+0x188>
  40125c:	b8 00 00 00 00       	mov    $0x0,%eax
  401261:	e8 fa f9 ff ff       	callq  400c60 <printf@plt>
  401266:	b8 00 00 00 00       	mov    $0x0,%eax
  40126b:	e8 f7 06 00 00       	callq  401967 <check_fail>
  401270:	8b 35 8e 32 20 00    	mov    0x20328e(%rip),%esi        # 604504 <cookie>
  401276:	48 8d 3d 45 1c 00 00 	lea    0x1c45(%rip),%rdi        # 402ec2 <_IO_stdin_used+0x262>
  40127d:	b8 00 00 00 00       	mov    $0x0,%eax
  401282:	e8 d9 f9 ff ff       	callq  400c60 <printf@plt>
  401287:	48 8b 3d f2 31 20 00 	mov    0x2031f2(%rip),%rdi        # 604480 <buf_offset>
  40128e:	e8 db 0b 00 00       	callq  401e6e <stable_launch>
  401293:	b8 00 00 00 00       	mov    $0x0,%eax
  401298:	5b                   	pop    %rbx
  401299:	5d                   	pop    %rbp
  40129a:	41 5c                	pop    %r12
  40129c:	41 5d                	pop    %r13
  40129e:	41 5e                	pop    %r14
  4012a0:	c3                   	retq   

00000000004012a1 <scramble>:
  4012a1:	b8 00 00 00 00       	mov    $0x0,%eax
  4012a6:	eb 11                	jmp    4012b9 <scramble+0x18>
  4012a8:	69 d0 55 37 00 00    	imul   $0x3755,%eax,%edx
  4012ae:	01 fa                	add    %edi,%edx
  4012b0:	89 c1                	mov    %eax,%ecx
  4012b2:	89 54 8c d0          	mov    %edx,-0x30(%rsp,%rcx,4)
  4012b6:	83 c0 01             	add    $0x1,%eax
  4012b9:	83 f8 09             	cmp    $0x9,%eax
  4012bc:	76 ea                	jbe    4012a8 <scramble+0x7>
  4012be:	8b 44 24 f0          	mov    -0x10(%rsp),%eax
  4012c2:	69 c0 01 8f 00 00    	imul   $0x8f01,%eax,%eax
  4012c8:	89 44 24 f0          	mov    %eax,-0x10(%rsp)
  4012cc:	8b 44 24 d8          	mov    -0x28(%rsp),%eax
  4012d0:	69 c0 6b 18 00 00    	imul   $0x186b,%eax,%eax
  4012d6:	89 44 24 d8          	mov    %eax,-0x28(%rsp)
  4012da:	8b 44 24 e8          	mov    -0x18(%rsp),%eax
  4012de:	69 c0 f4 84 00 00    	imul   $0x84f4,%eax,%eax
  4012e4:	89 44 24 e8          	mov    %eax,-0x18(%rsp)
  4012e8:	8b 44 24 dc          	mov    -0x24(%rsp),%eax
  4012ec:	69 c0 d1 0b 00 00    	imul   $0xbd1,%eax,%eax
  4012f2:	89 44 24 dc          	mov    %eax,-0x24(%rsp)
  4012f6:	8b 44 24 e0          	mov    -0x20(%rsp),%eax
  4012fa:	69 c0 df 7c 00 00    	imul   $0x7cdf,%eax,%eax
  401300:	89 44 24 e0          	mov    %eax,-0x20(%rsp)
  401304:	8b 44 24 e8          	mov    -0x18(%rsp),%eax
  401308:	69 c0 d3 36 00 00    	imul   $0x36d3,%eax,%eax
  40130e:	89 44 24 e8          	mov    %eax,-0x18(%rsp)
  401312:	8b 44 24 e4          	mov    -0x1c(%rsp),%eax
  401316:	69 c0 d8 fd 00 00    	imul   $0xfdd8,%eax,%eax
  40131c:	89 44 24 e4          	mov    %eax,-0x1c(%rsp)
  401320:	8b 44 24 d4          	mov    -0x2c(%rsp),%eax
  401324:	69 c0 9c d2 00 00    	imul   $0xd29c,%eax,%eax
  40132a:	89 44 24 d4          	mov    %eax,-0x2c(%rsp)
  40132e:	8b 44 24 e4          	mov    -0x1c(%rsp),%eax
  401332:	69 c0 5a 62 00 00    	imul   $0x625a,%eax,%eax
  401338:	89 44 24 e4          	mov    %eax,-0x1c(%rsp)
  40133c:	8b 44 24 f0          	mov    -0x10(%rsp),%eax
  401340:	69 c0 4d 8b 00 00    	imul   $0x8b4d,%eax,%eax
  401346:	89 44 24 f0          	mov    %eax,-0x10(%rsp)
  40134a:	8b 44 24 f4          	mov    -0xc(%rsp),%eax
  40134e:	69 c0 4f a6 00 00    	imul   $0xa64f,%eax,%eax
  401354:	89 44 24 f4          	mov    %eax,-0xc(%rsp)
  401358:	8b 44 24 d4          	mov    -0x2c(%rsp),%eax
  40135c:	69 c0 98 06 00 00    	imul   $0x698,%eax,%eax
  401362:	89 44 24 d4          	mov    %eax,-0x2c(%rsp)
  401366:	8b 44 24 d4          	mov    -0x2c(%rsp),%eax
  40136a:	69 c0 5e 15 00 00    	imul   $0x155e,%eax,%eax
  401370:	89 44 24 d4          	mov    %eax,-0x2c(%rsp)
  401374:	8b 44 24 d8          	mov    -0x28(%rsp),%eax
  401378:	69 c0 73 b9 00 00    	imul   $0xb973,%eax,%eax
  40137e:	89 44 24 d8          	mov    %eax,-0x28(%rsp)
  401382:	8b 44 24 e0          	mov    -0x20(%rsp),%eax
  401386:	69 c0 95 65 00 00    	imul   $0x6595,%eax,%eax
  40138c:	89 44 24 e0          	mov    %eax,-0x20(%rsp)
  401390:	8b 44 24 d0          	mov    -0x30(%rsp),%eax
  401394:	69 c0 a5 42 00 00    	imul   $0x42a5,%eax,%eax
  40139a:	89 44 24 d0          	mov    %eax,-0x30(%rsp)
  40139e:	8b 44 24 f4          	mov    -0xc(%rsp),%eax
  4013a2:	69 c0 f6 11 00 00    	imul   $0x11f6,%eax,%eax
  4013a8:	89 44 24 f4          	mov    %eax,-0xc(%rsp)
  4013ac:	8b 44 24 e8          	mov    -0x18(%rsp),%eax
  4013b0:	69 c0 d4 5a 00 00    	imul   $0x5ad4,%eax,%eax
  4013b6:	89 44 24 e8          	mov    %eax,-0x18(%rsp)
  4013ba:	8b 44 24 e0          	mov    -0x20(%rsp),%eax
  4013be:	69 c0 41 44 00 00    	imul   $0x4441,%eax,%eax
  4013c4:	89 44 24 e0          	mov    %eax,-0x20(%rsp)
  4013c8:	8b 44 24 d8          	mov    -0x28(%rsp),%eax
  4013cc:	69 c0 c6 83 00 00    	imul   $0x83c6,%eax,%eax
  4013d2:	89 44 24 d8          	mov    %eax,-0x28(%rsp)
  4013d6:	8b 44 24 ec          	mov    -0x14(%rsp),%eax
  4013da:	69 c0 2e 81 00 00    	imul   $0x812e,%eax,%eax
  4013e0:	89 44 24 ec          	mov    %eax,-0x14(%rsp)
  4013e4:	8b 44 24 e8          	mov    -0x18(%rsp),%eax
  4013e8:	69 c0 ce 57 00 00    	imul   $0x57ce,%eax,%eax
  4013ee:	89 44 24 e8          	mov    %eax,-0x18(%rsp)
  4013f2:	8b 44 24 e0          	mov    -0x20(%rsp),%eax
  4013f6:	69 c0 1c 0d 00 00    	imul   $0xd1c,%eax,%eax
  4013fc:	89 44 24 e0          	mov    %eax,-0x20(%rsp)
  401400:	8b 44 24 d0          	mov    -0x30(%rsp),%eax
  401404:	69 c0 5c eb 00 00    	imul   $0xeb5c,%eax,%eax
  40140a:	89 44 24 d0          	mov    %eax,-0x30(%rsp)
  40140e:	8b 44 24 d4          	mov    -0x2c(%rsp),%eax
  401412:	69 c0 5f e6 00 00    	imul   $0xe65f,%eax,%eax
  401418:	89 44 24 d4          	mov    %eax,-0x2c(%rsp)
  40141c:	8b 44 24 d0          	mov    -0x30(%rsp),%eax
  401420:	69 c0 42 e1 00 00    	imul   $0xe142,%eax,%eax
  401426:	89 44 24 d0          	mov    %eax,-0x30(%rsp)
  40142a:	8b 44 24 d4          	mov    -0x2c(%rsp),%eax
  40142e:	69 c0 68 79 00 00    	imul   $0x7968,%eax,%eax
  401434:	89 44 24 d4          	mov    %eax,-0x2c(%rsp)
  401438:	8b 44 24 f0          	mov    -0x10(%rsp),%eax
  40143c:	69 c0 c8 b3 00 00    	imul   $0xb3c8,%eax,%eax
  401442:	89 44 24 f0          	mov    %eax,-0x10(%rsp)
  401446:	8b 44 24 ec          	mov    -0x14(%rsp),%eax
  40144a:	69 c0 4a 5f 00 00    	imul   $0x5f4a,%eax,%eax
  401450:	89 44 24 ec          	mov    %eax,-0x14(%rsp)
  401454:	8b 44 24 d4          	mov    -0x2c(%rsp),%eax
  401458:	69 c0 17 9a 00 00    	imul   $0x9a17,%eax,%eax
  40145e:	89 44 24 d4          	mov    %eax,-0x2c(%rsp)
  401462:	8b 44 24 e0          	mov    -0x20(%rsp),%eax
  401466:	69 c0 4b b0 00 00    	imul   $0xb04b,%eax,%eax
  40146c:	89 44 24 e0          	mov    %eax,-0x20(%rsp)
  401470:	8b 44 24 e8          	mov    -0x18(%rsp),%eax
  401474:	69 c0 75 b9 00 00    	imul   $0xb975,%eax,%eax
  40147a:	89 44 24 e8          	mov    %eax,-0x18(%rsp)
  40147e:	8b 44 24 f4          	mov    -0xc(%rsp),%eax
  401482:	69 c0 cd 37 00 00    	imul   $0x37cd,%eax,%eax
  401488:	89 44 24 f4          	mov    %eax,-0xc(%rsp)
  40148c:	8b 44 24 dc          	mov    -0x24(%rsp),%eax
  401490:	69 c0 2c 59 00 00    	imul   $0x592c,%eax,%eax
  401496:	89 44 24 dc          	mov    %eax,-0x24(%rsp)
  40149a:	8b 44 24 e8          	mov    -0x18(%rsp),%eax
  40149e:	69 c0 ef 7a 00 00    	imul   $0x7aef,%eax,%eax
  4014a4:	89 44 24 e8          	mov    %eax,-0x18(%rsp)
  4014a8:	8b 44 24 e4          	mov    -0x1c(%rsp),%eax
  4014ac:	69 c0 2f 3d 00 00    	imul   $0x3d2f,%eax,%eax
  4014b2:	89 44 24 e4          	mov    %eax,-0x1c(%rsp)
  4014b6:	8b 44 24 e0          	mov    -0x20(%rsp),%eax
  4014ba:	69 c0 8c 97 00 00    	imul   $0x978c,%eax,%eax
  4014c0:	89 44 24 e0          	mov    %eax,-0x20(%rsp)
  4014c4:	8b 44 24 f0          	mov    -0x10(%rsp),%eax
  4014c8:	69 c0 24 7b 00 00    	imul   $0x7b24,%eax,%eax
  4014ce:	89 44 24 f0          	mov    %eax,-0x10(%rsp)
  4014d2:	8b 44 24 e0          	mov    -0x20(%rsp),%eax
  4014d6:	69 c0 68 bf 00 00    	imul   $0xbf68,%eax,%eax
  4014dc:	89 44 24 e0          	mov    %eax,-0x20(%rsp)
  4014e0:	8b 44 24 f0          	mov    -0x10(%rsp),%eax
  4014e4:	69 c0 1f 14 00 00    	imul   $0x141f,%eax,%eax
  4014ea:	89 44 24 f0          	mov    %eax,-0x10(%rsp)
  4014ee:	8b 44 24 d4          	mov    -0x2c(%rsp),%eax
  4014f2:	69 c0 29 dd 00 00    	imul   $0xdd29,%eax,%eax
  4014f8:	89 44 24 d4          	mov    %eax,-0x2c(%rsp)
  4014fc:	8b 44 24 f0          	mov    -0x10(%rsp),%eax
  401500:	69 c0 76 32 00 00    	imul   $0x3276,%eax,%eax
  401506:	89 44 24 f0          	mov    %eax,-0x10(%rsp)
  40150a:	8b 44 24 e0          	mov    -0x20(%rsp),%eax
  40150e:	69 c0 3c dd 00 00    	imul   $0xdd3c,%eax,%eax
  401514:	89 44 24 e0          	mov    %eax,-0x20(%rsp)
  401518:	8b 44 24 e8          	mov    -0x18(%rsp),%eax
  40151c:	69 c0 58 e5 00 00    	imul   $0xe558,%eax,%eax
  401522:	89 44 24 e8          	mov    %eax,-0x18(%rsp)
  401526:	8b 44 24 f4          	mov    -0xc(%rsp),%eax
  40152a:	69 c0 7a 53 00 00    	imul   $0x537a,%eax,%eax
  401530:	89 44 24 f4          	mov    %eax,-0xc(%rsp)
  401534:	8b 44 24 e4          	mov    -0x1c(%rsp),%eax
  401538:	69 c0 65 01 00 00    	imul   $0x165,%eax,%eax
  40153e:	89 44 24 e4          	mov    %eax,-0x1c(%rsp)
  401542:	8b 44 24 d8          	mov    -0x28(%rsp),%eax
  401546:	69 c0 2c 5c 00 00    	imul   $0x5c2c,%eax,%eax
  40154c:	89 44 24 d8          	mov    %eax,-0x28(%rsp)
  401550:	8b 44 24 d4          	mov    -0x2c(%rsp),%eax
  401554:	69 c0 07 c6 00 00    	imul   $0xc607,%eax,%eax
  40155a:	89 44 24 d4          	mov    %eax,-0x2c(%rsp)
  40155e:	8b 44 24 e8          	mov    -0x18(%rsp),%eax
  401562:	69 c0 24 cf 00 00    	imul   $0xcf24,%eax,%eax
  401568:	89 44 24 e8          	mov    %eax,-0x18(%rsp)
  40156c:	8b 44 24 ec          	mov    -0x14(%rsp),%eax
  401570:	69 c0 08 10 00 00    	imul   $0x1008,%eax,%eax
  401576:	89 44 24 ec          	mov    %eax,-0x14(%rsp)
  40157a:	8b 44 24 d0          	mov    -0x30(%rsp),%eax
  40157e:	69 c0 26 fc 00 00    	imul   $0xfc26,%eax,%eax
  401584:	89 44 24 d0          	mov    %eax,-0x30(%rsp)
  401588:	8b 44 24 f0          	mov    -0x10(%rsp),%eax
  40158c:	69 c0 31 46 00 00    	imul   $0x4631,%eax,%eax
  401592:	89 44 24 f0          	mov    %eax,-0x10(%rsp)
  401596:	8b 44 24 f4          	mov    -0xc(%rsp),%eax
  40159a:	69 c0 36 e2 00 00    	imul   $0xe236,%eax,%eax
  4015a0:	89 44 24 f4          	mov    %eax,-0xc(%rsp)
  4015a4:	8b 44 24 e0          	mov    -0x20(%rsp),%eax
  4015a8:	69 c0 5b 38 00 00    	imul   $0x385b,%eax,%eax
  4015ae:	89 44 24 e0          	mov    %eax,-0x20(%rsp)
  4015b2:	8b 44 24 d0          	mov    -0x30(%rsp),%eax
  4015b6:	69 c0 d5 27 00 00    	imul   $0x27d5,%eax,%eax
  4015bc:	89 44 24 d0          	mov    %eax,-0x30(%rsp)
  4015c0:	8b 44 24 d8          	mov    -0x28(%rsp),%eax
  4015c4:	69 c0 66 47 00 00    	imul   $0x4766,%eax,%eax
  4015ca:	89 44 24 d8          	mov    %eax,-0x28(%rsp)
  4015ce:	8b 44 24 e4          	mov    -0x1c(%rsp),%eax
  4015d2:	69 c0 db 41 00 00    	imul   $0x41db,%eax,%eax
  4015d8:	89 44 24 e4          	mov    %eax,-0x1c(%rsp)
  4015dc:	8b 44 24 e8          	mov    -0x18(%rsp),%eax
  4015e0:	69 c0 90 5b 00 00    	imul   $0x5b90,%eax,%eax
  4015e6:	89 44 24 e8          	mov    %eax,-0x18(%rsp)
  4015ea:	8b 44 24 d4          	mov    -0x2c(%rsp),%eax
  4015ee:	69 c0 1b 60 00 00    	imul   $0x601b,%eax,%eax
  4015f4:	89 44 24 d4          	mov    %eax,-0x2c(%rsp)
  4015f8:	8b 44 24 dc          	mov    -0x24(%rsp),%eax
  4015fc:	69 c0 9e 5b 00 00    	imul   $0x5b9e,%eax,%eax
  401602:	89 44 24 dc          	mov    %eax,-0x24(%rsp)
  401606:	8b 44 24 d0          	mov    -0x30(%rsp),%eax
  40160a:	69 c0 58 c0 00 00    	imul   $0xc058,%eax,%eax
  401610:	89 44 24 d0          	mov    %eax,-0x30(%rsp)
  401614:	8b 44 24 f0          	mov    -0x10(%rsp),%eax
  401618:	69 c0 5b b7 00 00    	imul   $0xb75b,%eax,%eax
  40161e:	89 44 24 f0          	mov    %eax,-0x10(%rsp)
  401622:	8b 44 24 d8          	mov    -0x28(%rsp),%eax
  401626:	69 c0 de 17 00 00    	imul   $0x17de,%eax,%eax
  40162c:	89 44 24 d8          	mov    %eax,-0x28(%rsp)
  401630:	8b 44 24 e8          	mov    -0x18(%rsp),%eax
  401634:	69 c0 7e b0 00 00    	imul   $0xb07e,%eax,%eax
  40163a:	89 44 24 e8          	mov    %eax,-0x18(%rsp)
  40163e:	8b 44 24 e0          	mov    -0x20(%rsp),%eax
  401642:	69 c0 96 9c 00 00    	imul   $0x9c96,%eax,%eax
  401648:	89 44 24 e0          	mov    %eax,-0x20(%rsp)
  40164c:	8b 44 24 d4          	mov    -0x2c(%rsp),%eax
  401650:	69 c0 16 31 00 00    	imul   $0x3116,%eax,%eax
  401656:	89 44 24 d4          	mov    %eax,-0x2c(%rsp)
  40165a:	8b 44 24 f4          	mov    -0xc(%rsp),%eax
  40165e:	69 c0 be 0d 00 00    	imul   $0xdbe,%eax,%eax
  401664:	89 44 24 f4          	mov    %eax,-0xc(%rsp)
  401668:	8b 44 24 d8          	mov    -0x28(%rsp),%eax
  40166c:	69 c0 6f 2c 00 00    	imul   $0x2c6f,%eax,%eax
  401672:	89 44 24 d8          	mov    %eax,-0x28(%rsp)
  401676:	8b 44 24 d0          	mov    -0x30(%rsp),%eax
  40167a:	69 c0 9c 38 00 00    	imul   $0x389c,%eax,%eax
  401680:	89 44 24 d0          	mov    %eax,-0x30(%rsp)
  401684:	8b 44 24 e4          	mov    -0x1c(%rsp),%eax
  401688:	69 c0 93 91 00 00    	imul   $0x9193,%eax,%eax
  40168e:	89 44 24 e4          	mov    %eax,-0x1c(%rsp)
  401692:	8b 44 24 d4          	mov    -0x2c(%rsp),%eax
  401696:	69 c0 44 b1 00 00    	imul   $0xb144,%eax,%eax
  40169c:	89 44 24 d4          	mov    %eax,-0x2c(%rsp)
  4016a0:	8b 44 24 e8          	mov    -0x18(%rsp),%eax
  4016a4:	69 c0 6f 65 00 00    	imul   $0x656f,%eax,%eax
  4016aa:	89 44 24 e8          	mov    %eax,-0x18(%rsp)
  4016ae:	8b 44 24 d8          	mov    -0x28(%rsp),%eax
  4016b2:	69 c0 d6 52 00 00    	imul   $0x52d6,%eax,%eax
  4016b8:	89 44 24 d8          	mov    %eax,-0x28(%rsp)
  4016bc:	8b 44 24 f0          	mov    -0x10(%rsp),%eax
  4016c0:	69 c0 38 12 00 00    	imul   $0x1238,%eax,%eax
  4016c6:	89 44 24 f0          	mov    %eax,-0x10(%rsp)
  4016ca:	8b 44 24 e0          	mov    -0x20(%rsp),%eax
  4016ce:	69 c0 e9 01 00 00    	imul   $0x1e9,%eax,%eax
  4016d4:	89 44 24 e0          	mov    %eax,-0x20(%rsp)
  4016d8:	8b 44 24 e4          	mov    -0x1c(%rsp),%eax
  4016dc:	69 c0 87 66 00 00    	imul   $0x6687,%eax,%eax
  4016e2:	89 44 24 e4          	mov    %eax,-0x1c(%rsp)
  4016e6:	8b 44 24 e0          	mov    -0x20(%rsp),%eax
  4016ea:	69 c0 da ca 00 00    	imul   $0xcada,%eax,%eax
  4016f0:	89 44 24 e0          	mov    %eax,-0x20(%rsp)
  4016f4:	8b 44 24 d4          	mov    -0x2c(%rsp),%eax
  4016f8:	69 c0 c6 de 00 00    	imul   $0xdec6,%eax,%eax
  4016fe:	89 44 24 d4          	mov    %eax,-0x2c(%rsp)
  401702:	8b 44 24 e0          	mov    -0x20(%rsp),%eax
  401706:	69 c0 45 9b 00 00    	imul   $0x9b45,%eax,%eax
  40170c:	89 44 24 e0          	mov    %eax,-0x20(%rsp)
  401710:	8b 44 24 ec          	mov    -0x14(%rsp),%eax
  401714:	69 c0 bb c9 00 00    	imul   $0xc9bb,%eax,%eax
  40171a:	89 44 24 ec          	mov    %eax,-0x14(%rsp)
  40171e:	8b 44 24 d4          	mov    -0x2c(%rsp),%eax
  401722:	69 c0 ca 4f 00 00    	imul   $0x4fca,%eax,%eax
  401728:	89 44 24 d4          	mov    %eax,-0x2c(%rsp)
  40172c:	ba 00 00 00 00       	mov    $0x0,%edx
  401731:	b8 00 00 00 00       	mov    $0x0,%eax
  401736:	eb 0b                	jmp    401743 <scramble+0x4a2>
  401738:	89 d1                	mov    %edx,%ecx
  40173a:	8b 4c 8c d0          	mov    -0x30(%rsp,%rcx,4),%ecx
  40173e:	01 c8                	add    %ecx,%eax
  401740:	83 c2 01             	add    $0x1,%edx
  401743:	83 fa 09             	cmp    $0x9,%edx
  401746:	76 f0                	jbe    401738 <scramble+0x497>
  401748:	f3 c3                	repz retq 

000000000040174a <getbuf>:
  40174a:	48 83 ec 18          	sub    $0x18,%rsp
  40174e:	48 89 e7             	mov    %rsp,%rdi
  401751:	e8 44 02 00 00       	callq  40199a <Gets>
  401756:	b8 01 00 00 00       	mov    $0x1,%eax
  40175b:	48 83 c4 18          	add    $0x18,%rsp
  40175f:	c3                   	retq   

0000000000401760 <touch1>:
  401760:	48 83 ec 08          	sub    $0x8,%rsp
  401764:	c7 05 8e 2d 20 00 01 	movl   $0x1,0x202d8e(%rip)        # 6044fc <vlevel>
  40176b:	00 00 00 
  40176e:	48 8d 3d ed 17 00 00 	lea    0x17ed(%rip),%rdi        # 402f62 <_IO_stdin_used+0x302>
  401775:	e8 b6 f4 ff ff       	callq  400c30 <puts@plt>
  40177a:	bf 01 00 00 00       	mov    $0x1,%edi
  40177f:	e8 2d 04 00 00       	callq  401bb1 <validate>
  401784:	bf 00 00 00 00       	mov    $0x0,%edi
  401789:	e8 22 f6 ff ff       	callq  400db0 <exit@plt>

000000000040178e <touch2>:
  40178e:	48 83 ec 08          	sub    $0x8,%rsp
  401792:	89 fe                	mov    %edi,%esi
  401794:	c7 05 5e 2d 20 00 02 	movl   $0x2,0x202d5e(%rip)        # 6044fc <vlevel>
  40179b:	00 00 00 
  40179e:	39 3d 60 2d 20 00    	cmp    %edi,0x202d60(%rip)        # 604504 <cookie>
  4017a4:	74 25                	je     4017cb <touch2+0x3d>
  4017a6:	48 8d 3d 03 18 00 00 	lea    0x1803(%rip),%rdi        # 402fb0 <_IO_stdin_used+0x350>
  4017ad:	b8 00 00 00 00       	mov    $0x0,%eax
  4017b2:	e8 a9 f4 ff ff       	callq  400c60 <printf@plt>
  4017b7:	bf 02 00 00 00       	mov    $0x2,%edi
  4017bc:	e8 ae 04 00 00       	callq  401c6f <fail>
  4017c1:	bf 00 00 00 00       	mov    $0x0,%edi
  4017c6:	e8 e5 f5 ff ff       	callq  400db0 <exit@plt>
  4017cb:	48 8d 3d b6 17 00 00 	lea    0x17b6(%rip),%rdi        # 402f88 <_IO_stdin_used+0x328>
  4017d2:	b8 00 00 00 00       	mov    $0x0,%eax
  4017d7:	e8 84 f4 ff ff       	callq  400c60 <printf@plt>
  4017dc:	bf 02 00 00 00       	mov    $0x2,%edi
  4017e1:	e8 cb 03 00 00       	callq  401bb1 <validate>
  4017e6:	eb d9                	jmp    4017c1 <touch2+0x33>

00000000004017e8 <hexmatch>:
  4017e8:	41 54                	push   %r12
  4017ea:	55                   	push   %rbp
  4017eb:	53                   	push   %rbx
  4017ec:	48 83 ec 70          	sub    $0x70,%rsp
  4017f0:	89 fd                	mov    %edi,%ebp
  4017f2:	48 89 f3             	mov    %rsi,%rbx
  4017f5:	e8 16 f5 ff ff       	callq  400d10 <random@plt>
  4017fa:	48 89 c1             	mov    %rax,%rcx
  4017fd:	48 ba 0b d7 a3 70 3d 	movabs $0xa3d70a3d70a3d70b,%rdx
  401804:	0a d7 a3 
  401807:	48 f7 ea             	imul   %rdx
  40180a:	48 01 ca             	add    %rcx,%rdx
  40180d:	48 c1 fa 06          	sar    $0x6,%rdx
  401811:	48 89 c8             	mov    %rcx,%rax
  401814:	48 c1 f8 3f          	sar    $0x3f,%rax
  401818:	48 29 c2             	sub    %rax,%rdx
  40181b:	48 8d 04 92          	lea    (%rdx,%rdx,4),%rax
  40181f:	48 8d 14 80          	lea    (%rax,%rax,4),%rdx
  401823:	48 8d 04 95 00 00 00 	lea    0x0(,%rdx,4),%rax
  40182a:	00 
  40182b:	48 29 c1             	sub    %rax,%rcx
  40182e:	4c 8d 24 0c          	lea    (%rsp,%rcx,1),%r12
  401832:	89 ea                	mov    %ebp,%edx
  401834:	48 8d 35 44 17 00 00 	lea    0x1744(%rip),%rsi        # 402f7f <_IO_stdin_used+0x31f>
  40183b:	4c 89 e7             	mov    %r12,%rdi
  40183e:	b8 00 00 00 00       	mov    $0x0,%eax
  401843:	e8 58 f5 ff ff       	callq  400da0 <sprintf@plt>
  401848:	ba 09 00 00 00       	mov    $0x9,%edx
  40184d:	4c 89 e6             	mov    %r12,%rsi
  401850:	48 89 df             	mov    %rbx,%rdi
  401853:	e8 b8 f3 ff ff       	callq  400c10 <strncmp@plt>
  401858:	85 c0                	test   %eax,%eax
  40185a:	0f 94 c0             	sete   %al
  40185d:	0f b6 c0             	movzbl %al,%eax
  401860:	48 83 c4 70          	add    $0x70,%rsp
  401864:	5b                   	pop    %rbx
  401865:	5d                   	pop    %rbp
  401866:	41 5c                	pop    %r12
  401868:	c3                   	retq   

0000000000401869 <touch3>:
  401869:	53                   	push   %rbx
  40186a:	48 89 fb             	mov    %rdi,%rbx
  40186d:	c7 05 85 2c 20 00 03 	movl   $0x3,0x202c85(%rip)        # 6044fc <vlevel>
  401874:	00 00 00 
  401877:	48 89 fe             	mov    %rdi,%rsi
  40187a:	8b 3d 84 2c 20 00    	mov    0x202c84(%rip),%edi        # 604504 <cookie>
  401880:	e8 63 ff ff ff       	callq  4017e8 <hexmatch>
  401885:	85 c0                	test   %eax,%eax
  401887:	74 28                	je     4018b1 <touch3+0x48>
  401889:	48 89 de             	mov    %rbx,%rsi
  40188c:	48 8d 3d 45 17 00 00 	lea    0x1745(%rip),%rdi        # 402fd8 <_IO_stdin_used+0x378>
  401893:	b8 00 00 00 00       	mov    $0x0,%eax
  401898:	e8 c3 f3 ff ff       	callq  400c60 <printf@plt>
  40189d:	bf 03 00 00 00       	mov    $0x3,%edi
  4018a2:	e8 0a 03 00 00       	callq  401bb1 <validate>
  4018a7:	bf 00 00 00 00       	mov    $0x0,%edi
  4018ac:	e8 ff f4 ff ff       	callq  400db0 <exit@plt>
  4018b1:	48 89 de             	mov    %rbx,%rsi
  4018b4:	48 8d 3d 45 17 00 00 	lea    0x1745(%rip),%rdi        # 403000 <_IO_stdin_used+0x3a0>
  4018bb:	b8 00 00 00 00       	mov    $0x0,%eax
  4018c0:	e8 9b f3 ff ff       	callq  400c60 <printf@plt>
  4018c5:	bf 03 00 00 00       	mov    $0x3,%edi
  4018ca:	e8 a0 03 00 00       	callq  401c6f <fail>
  4018cf:	eb d6                	jmp    4018a7 <touch3+0x3e>

00000000004018d1 <test>:
  4018d1:	48 83 ec 08          	sub    $0x8,%rsp
  4018d5:	b8 00 00 00 00       	mov    $0x0,%eax
  4018da:	e8 6b fe ff ff       	callq  40174a <getbuf>
  4018df:	89 c6                	mov    %eax,%esi
  4018e1:	48 8d 3d 40 17 00 00 	lea    0x1740(%rip),%rdi        # 403028 <_IO_stdin_used+0x3c8>
  4018e8:	b8 00 00 00 00       	mov    $0x0,%eax
  4018ed:	e8 6e f3 ff ff       	callq  400c60 <printf@plt>
  4018f2:	48 83 c4 08          	add    $0x8,%rsp
  4018f6:	c3                   	retq   

00000000004018f7 <save_char>:
  4018f7:	8b 05 27 38 20 00    	mov    0x203827(%rip),%eax        # 605124 <gets_cnt>
  4018fd:	3d ff 03 00 00       	cmp    $0x3ff,%eax
  401902:	7f 4a                	jg     40194e <save_char+0x57>
  401904:	8d 14 40             	lea    (%rax,%rax,2),%edx
  401907:	89 f9                	mov    %edi,%ecx
  401909:	c0 e9 04             	shr    $0x4,%cl
  40190c:	4c 8d 05 3d 1a 00 00 	lea    0x1a3d(%rip),%r8        # 403350 <trans_char>
  401913:	83 e1 0f             	and    $0xf,%ecx
  401916:	45 0f b6 0c 08       	movzbl (%r8,%rcx,1),%r9d
  40191b:	48 8d 0d fe 2b 20 00 	lea    0x202bfe(%rip),%rcx        # 604520 <gets_buf>
  401922:	48 63 f2             	movslq %edx,%rsi
  401925:	44 88 0c 31          	mov    %r9b,(%rcx,%rsi,1)
  401929:	8d 72 01             	lea    0x1(%rdx),%esi
  40192c:	83 e7 0f             	and    $0xf,%edi
  40192f:	41 0f b6 3c 38       	movzbl (%r8,%rdi,1),%edi
  401934:	48 63 f6             	movslq %esi,%rsi
  401937:	40 88 3c 31          	mov    %dil,(%rcx,%rsi,1)
  40193b:	83 c2 02             	add    $0x2,%edx
  40193e:	48 63 d2             	movslq %edx,%rdx
  401941:	c6 04 11 20          	movb   $0x20,(%rcx,%rdx,1)
  401945:	83 c0 01             	add    $0x1,%eax
  401948:	89 05 d6 37 20 00    	mov    %eax,0x2037d6(%rip)        # 605124 <gets_cnt>
  40194e:	f3 c3                	repz retq 

0000000000401950 <save_term>:
  401950:	8b 05 ce 37 20 00    	mov    0x2037ce(%rip),%eax        # 605124 <gets_cnt>
  401956:	8d 04 40             	lea    (%rax,%rax,2),%eax
  401959:	48 98                	cltq   
  40195b:	48 8d 15 be 2b 20 00 	lea    0x202bbe(%rip),%rdx        # 604520 <gets_buf>
  401962:	c6 04 02 00          	movb   $0x0,(%rdx,%rax,1)
  401966:	c3                   	retq   

0000000000401967 <check_fail>:
  401967:	48 83 ec 08          	sub    $0x8,%rsp
  40196b:	0f be 35 b6 37 20 00 	movsbl 0x2037b6(%rip),%esi        # 605128 <target_prefix>
  401972:	48 8d 0d a7 2b 20 00 	lea    0x202ba7(%rip),%rcx        # 604520 <gets_buf>
  401979:	8b 15 79 2b 20 00    	mov    0x202b79(%rip),%edx        # 6044f8 <check_level>
  40197f:	48 8d 3d c5 16 00 00 	lea    0x16c5(%rip),%rdi        # 40304b <_IO_stdin_used+0x3eb>
  401986:	b8 00 00 00 00       	mov    $0x0,%eax
  40198b:	e8 d0 f2 ff ff       	callq  400c60 <printf@plt>
  401990:	bf 01 00 00 00       	mov    $0x1,%edi
  401995:	e8 16 f4 ff ff       	callq  400db0 <exit@plt>

000000000040199a <Gets>:
  40199a:	41 54                	push   %r12
  40199c:	55                   	push   %rbp
  40199d:	53                   	push   %rbx
  40199e:	49 89 fc             	mov    %rdi,%r12
  4019a1:	c7 05 79 37 20 00 00 	movl   $0x0,0x203779(%rip)        # 605124 <gets_cnt>
  4019a8:	00 00 00 
  4019ab:	48 89 fb             	mov    %rdi,%rbx
  4019ae:	eb 11                	jmp    4019c1 <Gets+0x27>
  4019b0:	48 8d 6b 01          	lea    0x1(%rbx),%rbp
  4019b4:	88 03                	mov    %al,(%rbx)
  4019b6:	0f b6 f8             	movzbl %al,%edi
  4019b9:	e8 39 ff ff ff       	callq  4018f7 <save_char>
  4019be:	48 89 eb             	mov    %rbp,%rbx
  4019c1:	48 8b 3d 28 2b 20 00 	mov    0x202b28(%rip),%rdi        # 6044f0 <infile>
  4019c8:	e8 53 f3 ff ff       	callq  400d20 <_IO_getc@plt>
  4019cd:	83 f8 ff             	cmp    $0xffffffff,%eax
  4019d0:	74 05                	je     4019d7 <Gets+0x3d>
  4019d2:	83 f8 0a             	cmp    $0xa,%eax
  4019d5:	75 d9                	jne    4019b0 <Gets+0x16>
  4019d7:	c6 03 00             	movb   $0x0,(%rbx)
  4019da:	b8 00 00 00 00       	mov    $0x0,%eax
  4019df:	e8 6c ff ff ff       	callq  401950 <save_term>
  4019e4:	4c 89 e0             	mov    %r12,%rax
  4019e7:	5b                   	pop    %rbx
  4019e8:	5d                   	pop    %rbp
  4019e9:	41 5c                	pop    %r12
  4019eb:	c3                   	retq   

00000000004019ec <notify_server>:
  4019ec:	83 3d 15 2b 20 00 00 	cmpl   $0x0,0x202b15(%rip)        # 604508 <is_checker>
  4019f3:	0f 85 de 00 00 00    	jne    401ad7 <notify_server+0xeb>
  4019f9:	55                   	push   %rbp
  4019fa:	53                   	push   %rbx
  4019fb:	48 81 ec 08 40 00 00 	sub    $0x4008,%rsp
  401a02:	89 fb                	mov    %edi,%ebx
  401a04:	8b 05 1a 37 20 00    	mov    0x20371a(%rip),%eax        # 605124 <gets_cnt>
  401a0a:	83 c0 64             	add    $0x64,%eax
  401a0d:	3d 00 20 00 00       	cmp    $0x2000,%eax
  401a12:	0f 8f c1 00 00 00    	jg     401ad9 <notify_server+0xed>
  401a18:	44 0f be 0d 08 37 20 	movsbl 0x203708(%rip),%r9d        # 605128 <target_prefix>
  401a1f:	00 
  401a20:	83 3d 61 2a 20 00 00 	cmpl   $0x0,0x202a61(%rip)        # 604488 <notify>
  401a27:	0f 84 c7 00 00 00    	je     401af4 <notify_server+0x108>
  401a2d:	44 8b 05 cc 2a 20 00 	mov    0x202acc(%rip),%r8d        # 604500 <authkey>
  401a34:	85 db                	test   %ebx,%ebx
  401a36:	0f 84 c3 00 00 00    	je     401aff <notify_server+0x113>
  401a3c:	48 8d 2d 1e 16 00 00 	lea    0x161e(%rip),%rbp        # 403061 <_IO_stdin_used+0x401>
  401a43:	48 8d bc 24 00 20 00 	lea    0x2000(%rsp),%rdi
  401a4a:	00 
  401a4b:	48 8d 05 ce 2a 20 00 	lea    0x202ace(%rip),%rax        # 604520 <gets_buf>
  401a52:	50                   	push   %rax
  401a53:	56                   	push   %rsi
  401a54:	48 89 e9             	mov    %rbp,%rcx
  401a57:	8b 15 d3 26 20 00    	mov    0x2026d3(%rip),%edx        # 604130 <target_id>
  401a5d:	48 8d 35 07 16 00 00 	lea    0x1607(%rip),%rsi        # 40306b <_IO_stdin_used+0x40b>
  401a64:	b8 00 00 00 00       	mov    $0x0,%eax
  401a69:	e8 32 f3 ff ff       	callq  400da0 <sprintf@plt>
  401a6e:	48 83 c4 10          	add    $0x10,%rsp
  401a72:	83 3d 0f 2a 20 00 00 	cmpl   $0x0,0x202a0f(%rip)        # 604488 <notify>
  401a79:	0f 84 b8 00 00 00    	je     401b37 <notify_server+0x14b>
  401a7f:	85 db                	test   %ebx,%ebx
  401a81:	0f 84 a2 00 00 00    	je     401b29 <notify_server+0x13d>
  401a87:	48 8d 8c 24 00 20 00 	lea    0x2000(%rsp),%rcx
  401a8e:	00 
  401a8f:	49 89 e1             	mov    %rsp,%r9
  401a92:	41 b8 00 00 00 00    	mov    $0x0,%r8d
  401a98:	48 8b 15 a9 26 20 00 	mov    0x2026a9(%rip),%rdx        # 604148 <lab>
  401a9f:	48 8b 35 aa 26 20 00 	mov    0x2026aa(%rip),%rsi        # 604150 <course>
  401aa6:	48 8b 3d 93 26 20 00 	mov    0x202693(%rip),%rdi        # 604140 <user_id>
  401aad:	e8 6e 10 00 00       	callq  402b20 <driver_post>
  401ab2:	85 c0                	test   %eax,%eax
  401ab4:	78 55                	js     401b0b <notify_server+0x11f>
  401ab6:	48 8d 3d f3 16 00 00 	lea    0x16f3(%rip),%rdi        # 4031b0 <_IO_stdin_used+0x550>
  401abd:	e8 6e f1 ff ff       	callq  400c30 <puts@plt>
  401ac2:	48 8d 3d ca 15 00 00 	lea    0x15ca(%rip),%rdi        # 403093 <_IO_stdin_used+0x433>
  401ac9:	e8 62 f1 ff ff       	callq  400c30 <puts@plt>
  401ace:	48 81 c4 08 40 00 00 	add    $0x4008,%rsp
  401ad5:	5b                   	pop    %rbx
  401ad6:	5d                   	pop    %rbp
  401ad7:	f3 c3                	repz retq 
  401ad9:	48 8d 3d a0 16 00 00 	lea    0x16a0(%rip),%rdi        # 403180 <_IO_stdin_used+0x520>
  401ae0:	b8 00 00 00 00       	mov    $0x0,%eax
  401ae5:	e8 76 f1 ff ff       	callq  400c60 <printf@plt>
  401aea:	bf 01 00 00 00       	mov    $0x1,%edi
  401aef:	e8 bc f2 ff ff       	callq  400db0 <exit@plt>
  401af4:	41 b8 ff ff ff ff    	mov    $0xffffffff,%r8d
  401afa:	e9 35 ff ff ff       	jmpq   401a34 <notify_server+0x48>
  401aff:	48 8d 2d 60 15 00 00 	lea    0x1560(%rip),%rbp        # 403066 <_IO_stdin_used+0x406>
  401b06:	e9 38 ff ff ff       	jmpq   401a43 <notify_server+0x57>
  401b0b:	48 89 e6             	mov    %rsp,%rsi
  401b0e:	48 8d 3d 72 15 00 00 	lea    0x1572(%rip),%rdi        # 403087 <_IO_stdin_used+0x427>
  401b15:	b8 00 00 00 00       	mov    $0x0,%eax
  401b1a:	e8 41 f1 ff ff       	callq  400c60 <printf@plt>
  401b1f:	bf 01 00 00 00       	mov    $0x1,%edi
  401b24:	e8 87 f2 ff ff       	callq  400db0 <exit@plt>
  401b29:	48 8d 3d 6d 15 00 00 	lea    0x156d(%rip),%rdi        # 40309d <_IO_stdin_used+0x43d>
  401b30:	e8 fb f0 ff ff       	callq  400c30 <puts@plt>
  401b35:	eb 97                	jmp    401ace <notify_server+0xe2>
  401b37:	48 89 ee             	mov    %rbp,%rsi
  401b3a:	48 8d 3d a7 16 00 00 	lea    0x16a7(%rip),%rdi        # 4031e8 <_IO_stdin_used+0x588>
  401b41:	b8 00 00 00 00       	mov    $0x0,%eax
  401b46:	e8 15 f1 ff ff       	callq  400c60 <printf@plt>
  401b4b:	48 8b 35 ee 25 20 00 	mov    0x2025ee(%rip),%rsi        # 604140 <user_id>
  401b52:	48 8d 3d 4b 15 00 00 	lea    0x154b(%rip),%rdi        # 4030a4 <_IO_stdin_used+0x444>
  401b59:	b8 00 00 00 00       	mov    $0x0,%eax
  401b5e:	e8 fd f0 ff ff       	callq  400c60 <printf@plt>
  401b63:	48 8b 35 e6 25 20 00 	mov    0x2025e6(%rip),%rsi        # 604150 <course>
  401b6a:	48 8d 3d 40 15 00 00 	lea    0x1540(%rip),%rdi        # 4030b1 <_IO_stdin_used+0x451>
  401b71:	b8 00 00 00 00       	mov    $0x0,%eax
  401b76:	e8 e5 f0 ff ff       	callq  400c60 <printf@plt>
  401b7b:	48 8b 35 c6 25 20 00 	mov    0x2025c6(%rip),%rsi        # 604148 <lab>
  401b82:	48 8d 3d 34 15 00 00 	lea    0x1534(%rip),%rdi        # 4030bd <_IO_stdin_used+0x45d>
  401b89:	b8 00 00 00 00       	mov    $0x0,%eax
  401b8e:	e8 cd f0 ff ff       	callq  400c60 <printf@plt>
  401b93:	48 8d b4 24 00 20 00 	lea    0x2000(%rsp),%rsi
  401b9a:	00 
  401b9b:	48 8d 3d 24 15 00 00 	lea    0x1524(%rip),%rdi        # 4030c6 <_IO_stdin_used+0x466>
  401ba2:	b8 00 00 00 00       	mov    $0x0,%eax
  401ba7:	e8 b4 f0 ff ff       	callq  400c60 <printf@plt>
  401bac:	e9 1d ff ff ff       	jmpq   401ace <notify_server+0xe2>

0000000000401bb1 <validate>:
  401bb1:	53                   	push   %rbx
  401bb2:	89 fb                	mov    %edi,%ebx
  401bb4:	83 3d 4d 29 20 00 00 	cmpl   $0x0,0x20294d(%rip)        # 604508 <is_checker>
  401bbb:	74 68                	je     401c25 <validate+0x74>
  401bbd:	39 3d 39 29 20 00    	cmp    %edi,0x202939(%rip)        # 6044fc <vlevel>
  401bc3:	75 2d                	jne    401bf2 <validate+0x41>
  401bc5:	8b 35 2d 29 20 00    	mov    0x20292d(%rip),%esi        # 6044f8 <check_level>
  401bcb:	39 f7                	cmp    %esi,%edi
  401bcd:	75 39                	jne    401c08 <validate+0x57>
  401bcf:	0f be 35 52 35 20 00 	movsbl 0x203552(%rip),%esi        # 605128 <target_prefix>
  401bd6:	48 8d 0d 43 29 20 00 	lea    0x202943(%rip),%rcx        # 604520 <gets_buf>
  401bdd:	89 fa                	mov    %edi,%edx
  401bdf:	48 8d 3d 0a 15 00 00 	lea    0x150a(%rip),%rdi        # 4030f0 <_IO_stdin_used+0x490>
  401be6:	b8 00 00 00 00       	mov    $0x0,%eax
  401beb:	e8 70 f0 ff ff       	callq  400c60 <printf@plt>
  401bf0:	5b                   	pop    %rbx
  401bf1:	c3                   	retq   
  401bf2:	48 8d 3d d9 14 00 00 	lea    0x14d9(%rip),%rdi        # 4030d2 <_IO_stdin_used+0x472>
  401bf9:	e8 32 f0 ff ff       	callq  400c30 <puts@plt>
  401bfe:	b8 00 00 00 00       	mov    $0x0,%eax
  401c03:	e8 5f fd ff ff       	callq  401967 <check_fail>
  401c08:	89 fa                	mov    %edi,%edx
  401c0a:	48 8d 3d ff 15 00 00 	lea    0x15ff(%rip),%rdi        # 403210 <_IO_stdin_used+0x5b0>
  401c11:	b8 00 00 00 00       	mov    $0x0,%eax
  401c16:	e8 45 f0 ff ff       	callq  400c60 <printf@plt>
  401c1b:	b8 00 00 00 00       	mov    $0x0,%eax
  401c20:	e8 42 fd ff ff       	callq  401967 <check_fail>
  401c25:	3b 3d d1 28 20 00    	cmp    0x2028d1(%rip),%edi        # 6044fc <vlevel>
  401c2b:	74 1a                	je     401c47 <validate+0x96>
  401c2d:	48 8d 3d 9e 14 00 00 	lea    0x149e(%rip),%rdi        # 4030d2 <_IO_stdin_used+0x472>
  401c34:	e8 f7 ef ff ff       	callq  400c30 <puts@plt>
  401c39:	89 de                	mov    %ebx,%esi
  401c3b:	bf 00 00 00 00       	mov    $0x0,%edi
  401c40:	e8 a7 fd ff ff       	callq  4019ec <notify_server>
  401c45:	eb a9                	jmp    401bf0 <validate+0x3f>
  401c47:	0f be 15 da 34 20 00 	movsbl 0x2034da(%rip),%edx        # 605128 <target_prefix>
  401c4e:	89 fe                	mov    %edi,%esi
  401c50:	48 8d 3d e1 15 00 00 	lea    0x15e1(%rip),%rdi        # 403238 <_IO_stdin_used+0x5d8>
  401c57:	b8 00 00 00 00       	mov    $0x0,%eax
  401c5c:	e8 ff ef ff ff       	callq  400c60 <printf@plt>
  401c61:	89 de                	mov    %ebx,%esi
  401c63:	bf 01 00 00 00       	mov    $0x1,%edi
  401c68:	e8 7f fd ff ff       	callq  4019ec <notify_server>
  401c6d:	eb 81                	jmp    401bf0 <validate+0x3f>

0000000000401c6f <fail>:
  401c6f:	48 83 ec 08          	sub    $0x8,%rsp
  401c73:	83 3d 8e 28 20 00 00 	cmpl   $0x0,0x20288e(%rip)        # 604508 <is_checker>
  401c7a:	75 11                	jne    401c8d <fail+0x1e>
  401c7c:	89 fe                	mov    %edi,%esi
  401c7e:	bf 00 00 00 00       	mov    $0x0,%edi
  401c83:	e8 64 fd ff ff       	callq  4019ec <notify_server>
  401c88:	48 83 c4 08          	add    $0x8,%rsp
  401c8c:	c3                   	retq   
  401c8d:	b8 00 00 00 00       	mov    $0x0,%eax
  401c92:	e8 d0 fc ff ff       	callq  401967 <check_fail>

0000000000401c97 <bushandler>:
  401c97:	48 83 ec 08          	sub    $0x8,%rsp
  401c9b:	83 3d 66 28 20 00 00 	cmpl   $0x0,0x202866(%rip)        # 604508 <is_checker>
  401ca2:	74 16                	je     401cba <bushandler+0x23>
  401ca4:	48 8d 3d 5a 14 00 00 	lea    0x145a(%rip),%rdi        # 403105 <_IO_stdin_used+0x4a5>
  401cab:	e8 80 ef ff ff       	callq  400c30 <puts@plt>
  401cb0:	b8 00 00 00 00       	mov    $0x0,%eax
  401cb5:	e8 ad fc ff ff       	callq  401967 <check_fail>
  401cba:	48 8d 3d af 15 00 00 	lea    0x15af(%rip),%rdi        # 403270 <_IO_stdin_used+0x610>
  401cc1:	e8 6a ef ff ff       	callq  400c30 <puts@plt>
  401cc6:	48 8d 3d 42 14 00 00 	lea    0x1442(%rip),%rdi        # 40310f <_IO_stdin_used+0x4af>
  401ccd:	e8 5e ef ff ff       	callq  400c30 <puts@plt>
  401cd2:	be 00 00 00 00       	mov    $0x0,%esi
  401cd7:	bf 00 00 00 00       	mov    $0x0,%edi
  401cdc:	e8 0b fd ff ff       	callq  4019ec <notify_server>
  401ce1:	bf 01 00 00 00       	mov    $0x1,%edi
  401ce6:	e8 c5 f0 ff ff       	callq  400db0 <exit@plt>

0000000000401ceb <seghandler>:
  401ceb:	48 83 ec 08          	sub    $0x8,%rsp
  401cef:	83 3d 12 28 20 00 00 	cmpl   $0x0,0x202812(%rip)        # 604508 <is_checker>
  401cf6:	74 16                	je     401d0e <seghandler+0x23>
  401cf8:	48 8d 3d 26 14 00 00 	lea    0x1426(%rip),%rdi        # 403125 <_IO_stdin_used+0x4c5>
  401cff:	e8 2c ef ff ff       	callq  400c30 <puts@plt>
  401d04:	b8 00 00 00 00       	mov    $0x0,%eax
  401d09:	e8 59 fc ff ff       	callq  401967 <check_fail>
  401d0e:	48 8d 3d 7b 15 00 00 	lea    0x157b(%rip),%rdi        # 403290 <_IO_stdin_used+0x630>
  401d15:	e8 16 ef ff ff       	callq  400c30 <puts@plt>
  401d1a:	48 8d 3d ee 13 00 00 	lea    0x13ee(%rip),%rdi        # 40310f <_IO_stdin_used+0x4af>
  401d21:	e8 0a ef ff ff       	callq  400c30 <puts@plt>
  401d26:	be 00 00 00 00       	mov    $0x0,%esi
  401d2b:	bf 00 00 00 00       	mov    $0x0,%edi
  401d30:	e8 b7 fc ff ff       	callq  4019ec <notify_server>
  401d35:	bf 01 00 00 00       	mov    $0x1,%edi
  401d3a:	e8 71 f0 ff ff       	callq  400db0 <exit@plt>

0000000000401d3f <illegalhandler>:
  401d3f:	48 83 ec 08          	sub    $0x8,%rsp
  401d43:	83 3d be 27 20 00 00 	cmpl   $0x0,0x2027be(%rip)        # 604508 <is_checker>
  401d4a:	74 16                	je     401d62 <illegalhandler+0x23>
  401d4c:	48 8d 3d e5 13 00 00 	lea    0x13e5(%rip),%rdi        # 403138 <_IO_stdin_used+0x4d8>
  401d53:	e8 d8 ee ff ff       	callq  400c30 <puts@plt>
  401d58:	b8 00 00 00 00       	mov    $0x0,%eax
  401d5d:	e8 05 fc ff ff       	callq  401967 <check_fail>
  401d62:	48 8d 3d 4f 15 00 00 	lea    0x154f(%rip),%rdi        # 4032b8 <_IO_stdin_used+0x658>
  401d69:	e8 c2 ee ff ff       	callq  400c30 <puts@plt>
  401d6e:	48 8d 3d 9a 13 00 00 	lea    0x139a(%rip),%rdi        # 40310f <_IO_stdin_used+0x4af>
  401d75:	e8 b6 ee ff ff       	callq  400c30 <puts@plt>
  401d7a:	be 00 00 00 00       	mov    $0x0,%esi
  401d7f:	bf 00 00 00 00       	mov    $0x0,%edi
  401d84:	e8 63 fc ff ff       	callq  4019ec <notify_server>
  401d89:	bf 01 00 00 00       	mov    $0x1,%edi
  401d8e:	e8 1d f0 ff ff       	callq  400db0 <exit@plt>

0000000000401d93 <sigalrmhandler>:
  401d93:	48 83 ec 08          	sub    $0x8,%rsp
  401d97:	83 3d 6a 27 20 00 00 	cmpl   $0x0,0x20276a(%rip)        # 604508 <is_checker>
  401d9e:	74 16                	je     401db6 <sigalrmhandler+0x23>
  401da0:	48 8d 3d a5 13 00 00 	lea    0x13a5(%rip),%rdi        # 40314c <_IO_stdin_used+0x4ec>
  401da7:	e8 84 ee ff ff       	callq  400c30 <puts@plt>
  401dac:	b8 00 00 00 00       	mov    $0x0,%eax
  401db1:	e8 b1 fb ff ff       	callq  401967 <check_fail>
  401db6:	be 05 00 00 00       	mov    $0x5,%esi
  401dbb:	48 8d 3d 26 15 00 00 	lea    0x1526(%rip),%rdi        # 4032e8 <_IO_stdin_used+0x688>
  401dc2:	b8 00 00 00 00       	mov    $0x0,%eax
  401dc7:	e8 94 ee ff ff       	callq  400c60 <printf@plt>
  401dcc:	be 00 00 00 00       	mov    $0x0,%esi
  401dd1:	bf 00 00 00 00       	mov    $0x0,%edi
  401dd6:	e8 11 fc ff ff       	callq  4019ec <notify_server>
  401ddb:	bf 01 00 00 00       	mov    $0x1,%edi
  401de0:	e8 cb ef ff ff       	callq  400db0 <exit@plt>

0000000000401de5 <launch>:
  401de5:	55                   	push   %rbp
  401de6:	48 89 e5             	mov    %rsp,%rbp
  401de9:	48 89 fa             	mov    %rdi,%rdx
  401dec:	48 8d 47 1e          	lea    0x1e(%rdi),%rax
  401df0:	48 83 e0 f0          	and    $0xfffffffffffffff0,%rax
  401df4:	48 29 c4             	sub    %rax,%rsp
  401df7:	48 8d 7c 24 0f       	lea    0xf(%rsp),%rdi
  401dfc:	48 83 e7 f0          	and    $0xfffffffffffffff0,%rdi
  401e00:	be f4 00 00 00       	mov    $0xf4,%esi
  401e05:	e8 66 ee ff ff       	callq  400c70 <memset@plt>
  401e0a:	48 8b 05 8f 26 20 00 	mov    0x20268f(%rip),%rax        # 6044a0 <stdin@@GLIBC_2.2.5>
  401e11:	48 39 05 d8 26 20 00 	cmp    %rax,0x2026d8(%rip)        # 6044f0 <infile>
  401e18:	74 2b                	je     401e45 <launch+0x60>
  401e1a:	c7 05 d8 26 20 00 00 	movl   $0x0,0x2026d8(%rip)        # 6044fc <vlevel>
  401e21:	00 00 00 
  401e24:	b8 00 00 00 00       	mov    $0x0,%eax
  401e29:	e8 a3 fa ff ff       	callq  4018d1 <test>
  401e2e:	83 3d d3 26 20 00 00 	cmpl   $0x0,0x2026d3(%rip)        # 604508 <is_checker>
  401e35:	75 21                	jne    401e58 <launch+0x73>
  401e37:	48 8d 3d 2e 13 00 00 	lea    0x132e(%rip),%rdi        # 40316c <_IO_stdin_used+0x50c>
  401e3e:	e8 ed ed ff ff       	callq  400c30 <puts@plt>
  401e43:	c9                   	leaveq 
  401e44:	c3                   	retq   
  401e45:	48 8d 3d 08 13 00 00 	lea    0x1308(%rip),%rdi        # 403154 <_IO_stdin_used+0x4f4>
  401e4c:	b8 00 00 00 00       	mov    $0x0,%eax
  401e51:	e8 0a ee ff ff       	callq  400c60 <printf@plt>
  401e56:	eb c2                	jmp    401e1a <launch+0x35>
  401e58:	48 8d 3d 02 13 00 00 	lea    0x1302(%rip),%rdi        # 403161 <_IO_stdin_used+0x501>
  401e5f:	e8 cc ed ff ff       	callq  400c30 <puts@plt>
  401e64:	b8 00 00 00 00       	mov    $0x0,%eax
  401e69:	e8 f9 fa ff ff       	callq  401967 <check_fail>

0000000000401e6e <stable_launch>:
  401e6e:	53                   	push   %rbx
  401e6f:	48 89 3d 72 26 20 00 	mov    %rdi,0x202672(%rip)        # 6044e8 <global_offset>
  401e76:	41 b9 00 00 00 00    	mov    $0x0,%r9d
  401e7c:	41 b8 00 00 00 00    	mov    $0x0,%r8d
  401e82:	b9 32 01 00 00       	mov    $0x132,%ecx
  401e87:	ba 07 00 00 00       	mov    $0x7,%edx
  401e8c:	be 00 00 10 00       	mov    $0x100000,%esi
  401e91:	bf 00 60 58 55       	mov    $0x55586000,%edi
  401e96:	e8 b5 ed ff ff       	callq  400c50 <mmap@plt>
  401e9b:	48 89 c3             	mov    %rax,%rbx
  401e9e:	48 3d 00 60 58 55    	cmp    $0x55586000,%rax
  401ea4:	75 43                	jne    401ee9 <stable_launch+0x7b>
  401ea6:	48 8d 90 f8 ff 0f 00 	lea    0xffff8(%rax),%rdx
  401ead:	48 89 15 7c 32 20 00 	mov    %rdx,0x20327c(%rip)        # 605130 <stack_top>
  401eb4:	48 89 e0             	mov    %rsp,%rax
  401eb7:	48 89 d4             	mov    %rdx,%rsp
  401eba:	48 89 c2             	mov    %rax,%rdx
  401ebd:	48 89 15 1c 26 20 00 	mov    %rdx,0x20261c(%rip)        # 6044e0 <global_save_stack>
  401ec4:	48 8b 3d 1d 26 20 00 	mov    0x20261d(%rip),%rdi        # 6044e8 <global_offset>
  401ecb:	e8 15 ff ff ff       	callq  401de5 <launch>
  401ed0:	48 8b 05 09 26 20 00 	mov    0x202609(%rip),%rax        # 6044e0 <global_save_stack>
  401ed7:	48 89 c4             	mov    %rax,%rsp
  401eda:	be 00 00 10 00       	mov    $0x100000,%esi
  401edf:	48 89 df             	mov    %rbx,%rdi
  401ee2:	e8 59 ee ff ff       	callq  400d40 <munmap@plt>
  401ee7:	5b                   	pop    %rbx
  401ee8:	c3                   	retq   
  401ee9:	be 00 00 10 00       	mov    $0x100000,%esi
  401eee:	48 89 c7             	mov    %rax,%rdi
  401ef1:	e8 4a ee ff ff       	callq  400d40 <munmap@plt>
  401ef6:	ba 00 60 58 55       	mov    $0x55586000,%edx
  401efb:	48 8d 35 1e 14 00 00 	lea    0x141e(%rip),%rsi        # 403320 <_IO_stdin_used+0x6c0>
  401f02:	48 8b 3d b7 25 20 00 	mov    0x2025b7(%rip),%rdi        # 6044c0 <stderr@@GLIBC_2.2.5>
  401f09:	b8 00 00 00 00       	mov    $0x0,%eax
  401f0e:	e8 bd ed ff ff       	callq  400cd0 <fprintf@plt>
  401f13:	bf 01 00 00 00       	mov    $0x1,%edi
  401f18:	e8 93 ee ff ff       	callq  400db0 <exit@plt>

0000000000401f1d <rio_readinitb>:
  401f1d:	89 37                	mov    %esi,(%rdi)
  401f1f:	c7 47 04 00 00 00 00 	movl   $0x0,0x4(%rdi)
  401f26:	48 8d 47 10          	lea    0x10(%rdi),%rax
  401f2a:	48 89 47 08          	mov    %rax,0x8(%rdi)
  401f2e:	c3                   	retq   

0000000000401f2f <sigalrm_handler>:
  401f2f:	48 83 ec 08          	sub    $0x8,%rsp
  401f33:	ba 00 00 00 00       	mov    $0x0,%edx
  401f38:	48 8d 35 21 14 00 00 	lea    0x1421(%rip),%rsi        # 403360 <trans_char+0x10>
  401f3f:	48 8b 3d 7a 25 20 00 	mov    0x20257a(%rip),%rdi        # 6044c0 <stderr@@GLIBC_2.2.5>
  401f46:	b8 00 00 00 00       	mov    $0x0,%eax
  401f4b:	e8 80 ed ff ff       	callq  400cd0 <fprintf@plt>
  401f50:	bf 01 00 00 00       	mov    $0x1,%edi
  401f55:	e8 56 ee ff ff       	callq  400db0 <exit@plt>

0000000000401f5a <urlencode>:
  401f5a:	41 54                	push   %r12
  401f5c:	55                   	push   %rbp
  401f5d:	53                   	push   %rbx
  401f5e:	48 83 ec 10          	sub    $0x10,%rsp
  401f62:	48 89 fb             	mov    %rdi,%rbx
  401f65:	48 89 f5             	mov    %rsi,%rbp
  401f68:	b8 00 00 00 00       	mov    $0x0,%eax
  401f6d:	48 c7 c1 ff ff ff ff 	mov    $0xffffffffffffffff,%rcx
  401f74:	f2 ae                	repnz scas %es:(%rdi),%al
  401f76:	48 f7 d1             	not    %rcx
  401f79:	8d 41 ff             	lea    -0x1(%rcx),%eax
  401f7c:	eb 0e                	jmp    401f8c <urlencode+0x32>
  401f7e:	88 55 00             	mov    %dl,0x0(%rbp)
  401f81:	48 8d 6d 01          	lea    0x1(%rbp),%rbp
  401f85:	48 83 c3 01          	add    $0x1,%rbx
  401f89:	44 89 e0             	mov    %r12d,%eax
  401f8c:	44 8d 60 ff          	lea    -0x1(%rax),%r12d
  401f90:	85 c0                	test   %eax,%eax
  401f92:	0f 84 95 00 00 00    	je     40202d <urlencode+0xd3>
  401f98:	0f b6 13             	movzbl (%rbx),%edx
  401f9b:	80 fa 2a             	cmp    $0x2a,%dl
  401f9e:	0f 94 c1             	sete   %cl
  401fa1:	80 fa 2d             	cmp    $0x2d,%dl
  401fa4:	0f 94 c0             	sete   %al
  401fa7:	08 c1                	or     %al,%cl
  401fa9:	75 d3                	jne    401f7e <urlencode+0x24>
  401fab:	80 fa 2e             	cmp    $0x2e,%dl
  401fae:	74 ce                	je     401f7e <urlencode+0x24>
  401fb0:	80 fa 5f             	cmp    $0x5f,%dl
  401fb3:	74 c9                	je     401f7e <urlencode+0x24>
  401fb5:	8d 42 d0             	lea    -0x30(%rdx),%eax
  401fb8:	3c 09                	cmp    $0x9,%al
  401fba:	76 c2                	jbe    401f7e <urlencode+0x24>
  401fbc:	8d 42 bf             	lea    -0x41(%rdx),%eax
  401fbf:	3c 19                	cmp    $0x19,%al
  401fc1:	76 bb                	jbe    401f7e <urlencode+0x24>
  401fc3:	8d 42 9f             	lea    -0x61(%rdx),%eax
  401fc6:	3c 19                	cmp    $0x19,%al
  401fc8:	76 b4                	jbe    401f7e <urlencode+0x24>
  401fca:	80 fa 20             	cmp    $0x20,%dl
  401fcd:	74 4c                	je     40201b <urlencode+0xc1>
  401fcf:	8d 42 e0             	lea    -0x20(%rdx),%eax
  401fd2:	3c 5f                	cmp    $0x5f,%al
  401fd4:	0f 96 c1             	setbe  %cl
  401fd7:	80 fa 09             	cmp    $0x9,%dl
  401fda:	0f 94 c0             	sete   %al
  401fdd:	08 c1                	or     %al,%cl
  401fdf:	74 47                	je     402028 <urlencode+0xce>
  401fe1:	0f b6 d2             	movzbl %dl,%edx
  401fe4:	48 8d 7c 24 08       	lea    0x8(%rsp),%rdi
  401fe9:	48 8d 35 08 14 00 00 	lea    0x1408(%rip),%rsi        # 4033f8 <trans_char+0xa8>
  401ff0:	b8 00 00 00 00       	mov    $0x0,%eax
  401ff5:	e8 a6 ed ff ff       	callq  400da0 <sprintf@plt>
  401ffa:	0f b6 44 24 08       	movzbl 0x8(%rsp),%eax
  401fff:	88 45 00             	mov    %al,0x0(%rbp)
  402002:	0f b6 44 24 09       	movzbl 0x9(%rsp),%eax
  402007:	88 45 01             	mov    %al,0x1(%rbp)
  40200a:	0f b6 44 24 0a       	movzbl 0xa(%rsp),%eax
  40200f:	88 45 02             	mov    %al,0x2(%rbp)
  402012:	48 8d 6d 03          	lea    0x3(%rbp),%rbp
  402016:	e9 6a ff ff ff       	jmpq   401f85 <urlencode+0x2b>
  40201b:	c6 45 00 2b          	movb   $0x2b,0x0(%rbp)
  40201f:	48 8d 6d 01          	lea    0x1(%rbp),%rbp
  402023:	e9 5d ff ff ff       	jmpq   401f85 <urlencode+0x2b>
  402028:	b8 ff ff ff ff       	mov    $0xffffffff,%eax
  40202d:	48 83 c4 10          	add    $0x10,%rsp
  402031:	5b                   	pop    %rbx
  402032:	5d                   	pop    %rbp
  402033:	41 5c                	pop    %r12
  402035:	c3                   	retq   

0000000000402036 <rio_writen>:
  402036:	41 55                	push   %r13
  402038:	41 54                	push   %r12
  40203a:	55                   	push   %rbp
  40203b:	53                   	push   %rbx
  40203c:	48 83 ec 08          	sub    $0x8,%rsp
  402040:	41 89 fc             	mov    %edi,%r12d
  402043:	49 89 d5             	mov    %rdx,%r13
  402046:	48 89 f5             	mov    %rsi,%rbp
  402049:	48 89 d3             	mov    %rdx,%rbx
  40204c:	eb 06                	jmp    402054 <rio_writen+0x1e>
  40204e:	48 29 c3             	sub    %rax,%rbx
  402051:	48 01 c5             	add    %rax,%rbp
  402054:	48 85 db             	test   %rbx,%rbx
  402057:	74 24                	je     40207d <rio_writen+0x47>
  402059:	48 89 da             	mov    %rbx,%rdx
  40205c:	48 89 ee             	mov    %rbp,%rsi
  40205f:	44 89 e7             	mov    %r12d,%edi
  402062:	e8 d9 eb ff ff       	callq  400c40 <write@plt>
  402067:	48 85 c0             	test   %rax,%rax
  40206a:	7f e2                	jg     40204e <rio_writen+0x18>
  40206c:	e8 7f eb ff ff       	callq  400bf0 <__errno_location@plt>
  402071:	83 38 04             	cmpl   $0x4,(%rax)
  402074:	75 15                	jne    40208b <rio_writen+0x55>
  402076:	b8 00 00 00 00       	mov    $0x0,%eax
  40207b:	eb d1                	jmp    40204e <rio_writen+0x18>
  40207d:	4c 89 e8             	mov    %r13,%rax
  402080:	48 83 c4 08          	add    $0x8,%rsp
  402084:	5b                   	pop    %rbx
  402085:	5d                   	pop    %rbp
  402086:	41 5c                	pop    %r12
  402088:	41 5d                	pop    %r13
  40208a:	c3                   	retq   
  40208b:	48 c7 c0 ff ff ff ff 	mov    $0xffffffffffffffff,%rax
  402092:	eb ec                	jmp    402080 <rio_writen+0x4a>

0000000000402094 <rio_read>:
  402094:	41 55                	push   %r13
  402096:	41 54                	push   %r12
  402098:	55                   	push   %rbp
  402099:	53                   	push   %rbx
  40209a:	48 83 ec 08          	sub    $0x8,%rsp
  40209e:	48 89 fb             	mov    %rdi,%rbx
  4020a1:	49 89 f5             	mov    %rsi,%r13
  4020a4:	49 89 d4             	mov    %rdx,%r12
  4020a7:	eb 0a                	jmp    4020b3 <rio_read+0x1f>
  4020a9:	e8 42 eb ff ff       	callq  400bf0 <__errno_location@plt>
  4020ae:	83 38 04             	cmpl   $0x4,(%rax)
  4020b1:	75 5c                	jne    40210f <rio_read+0x7b>
  4020b3:	8b 6b 04             	mov    0x4(%rbx),%ebp
  4020b6:	85 ed                	test   %ebp,%ebp
  4020b8:	7f 24                	jg     4020de <rio_read+0x4a>
  4020ba:	48 8d 6b 10          	lea    0x10(%rbx),%rbp
  4020be:	ba 00 20 00 00       	mov    $0x2000,%edx
  4020c3:	48 89 ee             	mov    %rbp,%rsi
  4020c6:	8b 3b                	mov    (%rbx),%edi
  4020c8:	e8 d3 eb ff ff       	callq  400ca0 <read@plt>
  4020cd:	89 43 04             	mov    %eax,0x4(%rbx)
  4020d0:	85 c0                	test   %eax,%eax
  4020d2:	78 d5                	js     4020a9 <rio_read+0x15>
  4020d4:	85 c0                	test   %eax,%eax
  4020d6:	74 40                	je     402118 <rio_read+0x84>
  4020d8:	48 89 6b 08          	mov    %rbp,0x8(%rbx)
  4020dc:	eb d5                	jmp    4020b3 <rio_read+0x1f>
  4020de:	89 e8                	mov    %ebp,%eax
  4020e0:	49 39 c4             	cmp    %rax,%r12
  4020e3:	77 03                	ja     4020e8 <rio_read+0x54>
  4020e5:	44 89 e5             	mov    %r12d,%ebp
  4020e8:	4c 63 e5             	movslq %ebp,%r12
  4020eb:	48 8b 73 08          	mov    0x8(%rbx),%rsi
  4020ef:	4c 89 e2             	mov    %r12,%rdx
  4020f2:	4c 89 ef             	mov    %r13,%rdi
  4020f5:	e8 f6 eb ff ff       	callq  400cf0 <memcpy@plt>
  4020fa:	4c 01 63 08          	add    %r12,0x8(%rbx)
  4020fe:	29 6b 04             	sub    %ebp,0x4(%rbx)
  402101:	4c 89 e0             	mov    %r12,%rax
  402104:	48 83 c4 08          	add    $0x8,%rsp
  402108:	5b                   	pop    %rbx
  402109:	5d                   	pop    %rbp
  40210a:	41 5c                	pop    %r12
  40210c:	41 5d                	pop    %r13
  40210e:	c3                   	retq   
  40210f:	48 c7 c0 ff ff ff ff 	mov    $0xffffffffffffffff,%rax
  402116:	eb ec                	jmp    402104 <rio_read+0x70>
  402118:	b8 00 00 00 00       	mov    $0x0,%eax
  40211d:	eb e5                	jmp    402104 <rio_read+0x70>

000000000040211f <rio_readlineb>:
  40211f:	41 55                	push   %r13
  402121:	41 54                	push   %r12
  402123:	55                   	push   %rbp
  402124:	53                   	push   %rbx
  402125:	48 83 ec 18          	sub    $0x18,%rsp
  402129:	49 89 fd             	mov    %rdi,%r13
  40212c:	49 89 d4             	mov    %rdx,%r12
  40212f:	48 89 f5             	mov    %rsi,%rbp
  402132:	bb 01 00 00 00       	mov    $0x1,%ebx
  402137:	4c 39 e3             	cmp    %r12,%rbx
  40213a:	73 47                	jae    402183 <rio_readlineb+0x64>
  40213c:	48 8d 74 24 0f       	lea    0xf(%rsp),%rsi
  402141:	ba 01 00 00 00       	mov    $0x1,%edx
  402146:	4c 89 ef             	mov    %r13,%rdi
  402149:	e8 46 ff ff ff       	callq  402094 <rio_read>
  40214e:	83 f8 01             	cmp    $0x1,%eax
  402151:	75 1c                	jne    40216f <rio_readlineb+0x50>
  402153:	48 8d 45 01          	lea    0x1(%rbp),%rax
  402157:	0f b6 54 24 0f       	movzbl 0xf(%rsp),%edx
  40215c:	88 55 00             	mov    %dl,0x0(%rbp)
  40215f:	80 7c 24 0f 0a       	cmpb   $0xa,0xf(%rsp)
  402164:	74 1a                	je     402180 <rio_readlineb+0x61>
  402166:	48 83 c3 01          	add    $0x1,%rbx
  40216a:	48 89 c5             	mov    %rax,%rbp
  40216d:	eb c8                	jmp    402137 <rio_readlineb+0x18>
  40216f:	85 c0                	test   %eax,%eax
  402171:	75 22                	jne    402195 <rio_readlineb+0x76>
  402173:	48 83 fb 01          	cmp    $0x1,%rbx
  402177:	75 0a                	jne    402183 <rio_readlineb+0x64>
  402179:	b8 00 00 00 00       	mov    $0x0,%eax
  40217e:	eb 0a                	jmp    40218a <rio_readlineb+0x6b>
  402180:	48 89 c5             	mov    %rax,%rbp
  402183:	c6 45 00 00          	movb   $0x0,0x0(%rbp)
  402187:	48 89 d8             	mov    %rbx,%rax
  40218a:	48 83 c4 18          	add    $0x18,%rsp
  40218e:	5b                   	pop    %rbx
  40218f:	5d                   	pop    %rbp
  402190:	41 5c                	pop    %r12
  402192:	41 5d                	pop    %r13
  402194:	c3                   	retq   
  402195:	48 c7 c0 ff ff ff ff 	mov    $0xffffffffffffffff,%rax
  40219c:	eb ec                	jmp    40218a <rio_readlineb+0x6b>

000000000040219e <submitr>:
  40219e:	41 57                	push   %r15
  4021a0:	41 56                	push   %r14
  4021a2:	41 55                	push   %r13
  4021a4:	41 54                	push   %r12
  4021a6:	55                   	push   %rbp
  4021a7:	53                   	push   %rbx
  4021a8:	48 81 ec 58 a0 00 00 	sub    $0xa058,%rsp
  4021af:	49 89 fd             	mov    %rdi,%r13
  4021b2:	89 74 24 14          	mov    %esi,0x14(%rsp)
  4021b6:	49 89 d7             	mov    %rdx,%r15
  4021b9:	48 89 4c 24 08       	mov    %rcx,0x8(%rsp)
  4021be:	4c 89 44 24 18       	mov    %r8,0x18(%rsp)
  4021c3:	4d 89 ce             	mov    %r9,%r14
  4021c6:	48 8b 9c 24 90 a0 00 	mov    0xa090(%rsp),%rbx
  4021cd:	00 
  4021ce:	c7 84 24 2c 20 00 00 	movl   $0x0,0x202c(%rsp)
  4021d5:	00 00 00 00 
  4021d9:	ba 00 00 00 00       	mov    $0x0,%edx
  4021de:	be 01 00 00 00       	mov    $0x1,%esi
  4021e3:	bf 02 00 00 00       	mov    $0x2,%edi
  4021e8:	e8 e3 eb ff ff       	callq  400dd0 <socket@plt>
  4021ed:	85 c0                	test   %eax,%eax
  4021ef:	0f 88 ca 01 00 00    	js     4023bf <submitr+0x221>
  4021f5:	89 c5                	mov    %eax,%ebp
  4021f7:	4c 89 ef             	mov    %r13,%rdi
  4021fa:	e8 c1 ea ff ff       	callq  400cc0 <gethostbyname@plt>
  4021ff:	48 85 c0             	test   %rax,%rax
  402202:	0f 84 05 02 00 00    	je     40240d <submitr+0x26f>
  402208:	4c 8d a4 24 40 a0 00 	lea    0xa040(%rsp),%r12
  40220f:	00 
  402210:	48 c7 84 24 40 a0 00 	movq   $0x0,0xa040(%rsp)
  402217:	00 00 00 00 00 
  40221c:	48 c7 84 24 48 a0 00 	movq   $0x0,0xa048(%rsp)
  402223:	00 00 00 00 00 
  402228:	66 c7 84 24 40 a0 00 	movw   $0x2,0xa040(%rsp)
  40222f:	00 02 00 
  402232:	48 8b 48 18          	mov    0x18(%rax),%rcx
  402236:	48 63 50 14          	movslq 0x14(%rax),%rdx
  40223a:	48 8d b4 24 44 a0 00 	lea    0xa044(%rsp),%rsi
  402241:	00 
  402242:	48 8b 39             	mov    (%rcx),%rdi
  402245:	e8 06 eb ff ff       	callq  400d50 <bcopy@plt>
  40224a:	0f b7 44 24 14       	movzwl 0x14(%rsp),%eax
  40224f:	66 c1 c8 08          	ror    $0x8,%ax
  402253:	66 89 84 24 42 a0 00 	mov    %ax,0xa042(%rsp)
  40225a:	00 
  40225b:	ba 10 00 00 00       	mov    $0x10,%edx
  402260:	4c 89 e6             	mov    %r12,%rsi
  402263:	89 ef                	mov    %ebp,%edi
  402265:	e8 56 eb ff ff       	callq  400dc0 <connect@plt>
  40226a:	85 c0                	test   %eax,%eax
  40226c:	0f 88 02 02 00 00    	js     402474 <submitr+0x2d6>
  402272:	48 c7 c6 ff ff ff ff 	mov    $0xffffffffffffffff,%rsi
  402279:	b8 00 00 00 00       	mov    $0x0,%eax
  40227e:	48 89 f1             	mov    %rsi,%rcx
  402281:	4c 89 f7             	mov    %r14,%rdi
  402284:	f2 ae                	repnz scas %es:(%rdi),%al
  402286:	48 f7 d1             	not    %rcx
  402289:	48 89 ca             	mov    %rcx,%rdx
  40228c:	48 89 f1             	mov    %rsi,%rcx
  40228f:	4c 89 ff             	mov    %r15,%rdi
  402292:	f2 ae                	repnz scas %es:(%rdi),%al
  402294:	48 f7 d1             	not    %rcx
  402297:	49 89 c8             	mov    %rcx,%r8
  40229a:	48 89 f1             	mov    %rsi,%rcx
  40229d:	48 8b 7c 24 08       	mov    0x8(%rsp),%rdi
  4022a2:	f2 ae                	repnz scas %es:(%rdi),%al
  4022a4:	48 f7 d1             	not    %rcx
  4022a7:	4d 8d 44 08 fe       	lea    -0x2(%r8,%rcx,1),%r8
  4022ac:	48 89 f1             	mov    %rsi,%rcx
  4022af:	48 8b 7c 24 18       	mov    0x18(%rsp),%rdi
  4022b4:	f2 ae                	repnz scas %es:(%rdi),%al
  4022b6:	48 89 c8             	mov    %rcx,%rax
  4022b9:	48 f7 d0             	not    %rax
  4022bc:	49 8d 4c 00 ff       	lea    -0x1(%r8,%rax,1),%rcx
  4022c1:	48 8d 44 52 fd       	lea    -0x3(%rdx,%rdx,2),%rax
  4022c6:	48 8d 84 01 80 00 00 	lea    0x80(%rcx,%rax,1),%rax
  4022cd:	00 
  4022ce:	48 3d 00 20 00 00    	cmp    $0x2000,%rax
  4022d4:	0f 87 f3 01 00 00    	ja     4024cd <submitr+0x32f>
  4022da:	48 8d b4 24 30 40 00 	lea    0x4030(%rsp),%rsi
  4022e1:	00 
  4022e2:	b9 00 04 00 00       	mov    $0x400,%ecx
  4022e7:	b8 00 00 00 00       	mov    $0x0,%eax
  4022ec:	48 89 f7             	mov    %rsi,%rdi
  4022ef:	f3 48 ab             	rep stos %rax,%es:(%rdi)
  4022f2:	4c 89 f7             	mov    %r14,%rdi
  4022f5:	e8 60 fc ff ff       	callq  401f5a <urlencode>
  4022fa:	85 c0                	test   %eax,%eax
  4022fc:	0f 88 3d 02 00 00    	js     40253f <submitr+0x3a1>
  402302:	4c 8d a4 24 30 60 00 	lea    0x6030(%rsp),%r12
  402309:	00 
  40230a:	4d 89 e9             	mov    %r13,%r9
  40230d:	4c 8d 84 24 30 40 00 	lea    0x4030(%rsp),%r8
  402314:	00 
  402315:	4c 89 f9             	mov    %r15,%rcx
  402318:	48 8b 54 24 08       	mov    0x8(%rsp),%rdx
  40231d:	48 8d 35 64 10 00 00 	lea    0x1064(%rip),%rsi        # 403388 <trans_char+0x38>
  402324:	4c 89 e7             	mov    %r12,%rdi
  402327:	b8 00 00 00 00       	mov    $0x0,%eax
  40232c:	e8 6f ea ff ff       	callq  400da0 <sprintf@plt>
  402331:	b8 00 00 00 00       	mov    $0x0,%eax
  402336:	48 c7 c1 ff ff ff ff 	mov    $0xffffffffffffffff,%rcx
  40233d:	4c 89 e7             	mov    %r12,%rdi
  402340:	f2 ae                	repnz scas %es:(%rdi),%al
  402342:	48 f7 d1             	not    %rcx
  402345:	48 8d 51 ff          	lea    -0x1(%rcx),%rdx
  402349:	4c 89 e6             	mov    %r12,%rsi
  40234c:	89 ef                	mov    %ebp,%edi
  40234e:	e8 e3 fc ff ff       	callq  402036 <rio_writen>
  402353:	48 85 c0             	test   %rax,%rax
  402356:	0f 88 6d 02 00 00    	js     4025c9 <submitr+0x42b>
  40235c:	4c 8d a4 24 30 80 00 	lea    0x8030(%rsp),%r12
  402363:	00 
  402364:	89 ee                	mov    %ebp,%esi
  402366:	4c 89 e7             	mov    %r12,%rdi
  402369:	e8 af fb ff ff       	callq  401f1d <rio_readinitb>
  40236e:	48 8d b4 24 30 60 00 	lea    0x6030(%rsp),%rsi
  402375:	00 
  402376:	ba 00 20 00 00       	mov    $0x2000,%edx
  40237b:	4c 89 e7             	mov    %r12,%rdi
  40237e:	e8 9c fd ff ff       	callq  40211f <rio_readlineb>
  402383:	48 85 c0             	test   %rax,%rax
  402386:	0f 8e ab 02 00 00    	jle    402637 <submitr+0x499>
  40238c:	48 8d 8c 24 2c 20 00 	lea    0x202c(%rsp),%rcx
  402393:	00 
  402394:	48 8d 94 24 30 20 00 	lea    0x2030(%rsp),%rdx
  40239b:	00 
  40239c:	48 8d bc 24 30 60 00 	lea    0x6030(%rsp),%rdi
  4023a3:	00 
  4023a4:	4c 8d 44 24 20       	lea    0x20(%rsp),%r8
  4023a9:	48 8d 35 4f 10 00 00 	lea    0x104f(%rip),%rsi        # 4033ff <trans_char+0xaf>
  4023b0:	b8 00 00 00 00       	mov    $0x0,%eax
  4023b5:	e8 76 e9 ff ff       	callq  400d30 <__isoc99_sscanf@plt>
  4023ba:	e9 9f 03 00 00       	jmpq   40275e <submitr+0x5c0>
  4023bf:	48 b8 45 72 72 6f 72 	movabs $0x43203a726f727245,%rax
  4023c6:	3a 20 43 
  4023c9:	48 89 03             	mov    %rax,(%rbx)
  4023cc:	48 b8 6c 69 65 6e 74 	movabs $0x6e7520746e65696c,%rax
  4023d3:	20 75 6e 
  4023d6:	48 89 43 08          	mov    %rax,0x8(%rbx)
  4023da:	48 b8 61 62 6c 65 20 	movabs $0x206f7420656c6261,%rax
  4023e1:	74 6f 20 
  4023e4:	48 89 43 10          	mov    %rax,0x10(%rbx)
  4023e8:	48 b8 63 72 65 61 74 	movabs $0x7320657461657263,%rax
  4023ef:	65 20 73 
  4023f2:	48 89 43 18          	mov    %rax,0x18(%rbx)
  4023f6:	c7 43 20 6f 63 6b 65 	movl   $0x656b636f,0x20(%rbx)
  4023fd:	66 c7 43 24 74 00    	movw   $0x74,0x24(%rbx)
  402403:	b8 ff ff ff ff       	mov    $0xffffffff,%eax
  402408:	e9 18 03 00 00       	jmpq   402725 <submitr+0x587>
  40240d:	48 b8 45 72 72 6f 72 	movabs $0x44203a726f727245,%rax
  402414:	3a 20 44 
  402417:	48 89 03             	mov    %rax,(%rbx)
  40241a:	48 b8 4e 53 20 69 73 	movabs $0x6e7520736920534e,%rax
  402421:	20 75 6e 
  402424:	48 89 43 08          	mov    %rax,0x8(%rbx)
  402428:	48 b8 61 62 6c 65 20 	movabs $0x206f7420656c6261,%rax
  40242f:	74 6f 20 
  402432:	48 89 43 10          	mov    %rax,0x10(%rbx)
  402436:	48 b8 72 65 73 6f 6c 	movabs $0x2065766c6f736572,%rax
  40243d:	76 65 20 
  402440:	48 89 43 18          	mov    %rax,0x18(%rbx)
  402444:	48 b8 73 65 72 76 65 	movabs $0x6120726576726573,%rax
  40244b:	72 20 61 
  40244e:	48 89 43 20          	mov    %rax,0x20(%rbx)
  402452:	c7 43 28 64 64 72 65 	movl   $0x65726464,0x28(%rbx)
  402459:	66 c7 43 2c 73 73    	movw   $0x7373,0x2c(%rbx)
  40245f:	c6 43 2e 00          	movb   $0x0,0x2e(%rbx)
  402463:	89 ef                	mov    %ebp,%edi
  402465:	e8 26 e8 ff ff       	callq  400c90 <close@plt>
  40246a:	b8 ff ff ff ff       	mov    $0xffffffff,%eax
  40246f:	e9 b1 02 00 00       	jmpq   402725 <submitr+0x587>
  402474:	48 b8 45 72 72 6f 72 	movabs $0x55203a726f727245,%rax
  40247b:	3a 20 55 
  40247e:	48 89 03             	mov    %rax,(%rbx)
  402481:	48 b8 6e 61 62 6c 65 	movabs $0x6f7420656c62616e,%rax
  402488:	20 74 6f 
  40248b:	48 89 43 08          	mov    %rax,0x8(%rbx)
  40248f:	48 b8 20 63 6f 6e 6e 	movabs $0x7463656e6e6f6320,%rax
  402496:	65 63 74 
  402499:	48 89 43 10          	mov    %rax,0x10(%rbx)
  40249d:	48 b8 20 74 6f 20 74 	movabs $0x20656874206f7420,%rax
  4024a4:	68 65 20 
  4024a7:	48 89 43 18          	mov    %rax,0x18(%rbx)
  4024ab:	c7 43 20 73 65 72 76 	movl   $0x76726573,0x20(%rbx)
  4024b2:	66 c7 43 24 65 72    	movw   $0x7265,0x24(%rbx)
  4024b8:	c6 43 26 00          	movb   $0x0,0x26(%rbx)
  4024bc:	89 ef                	mov    %ebp,%edi
  4024be:	e8 cd e7 ff ff       	callq  400c90 <close@plt>
  4024c3:	b8 ff ff ff ff       	mov    $0xffffffff,%eax
  4024c8:	e9 58 02 00 00       	jmpq   402725 <submitr+0x587>
  4024cd:	48 b8 45 72 72 6f 72 	movabs $0x52203a726f727245,%rax
  4024d4:	3a 20 52 
  4024d7:	48 89 03             	mov    %rax,(%rbx)
  4024da:	48 b8 65 73 75 6c 74 	movabs $0x747320746c757365,%rax
  4024e1:	20 73 74 
  4024e4:	48 89 43 08          	mov    %rax,0x8(%rbx)
  4024e8:	48 b8 72 69 6e 67 20 	movabs $0x6f6f7420676e6972,%rax
  4024ef:	74 6f 6f 
  4024f2:	48 89 43 10          	mov    %rax,0x10(%rbx)
  4024f6:	48 b8 20 6c 61 72 67 	movabs $0x202e656772616c20,%rax
  4024fd:	65 2e 20 
  402500:	48 89 43 18          	mov    %rax,0x18(%rbx)
  402504:	48 b8 49 6e 63 72 65 	movabs $0x6573616572636e49,%rax
  40250b:	61 73 65 
  40250e:	48 89 43 20          	mov    %rax,0x20(%rbx)
  402512:	48 b8 20 53 55 42 4d 	movabs $0x5254494d42555320,%rax
  402519:	49 54 52 
  40251c:	48 89 43 28          	mov    %rax,0x28(%rbx)
  402520:	48 b8 5f 4d 41 58 42 	movabs $0x46554258414d5f,%rax
  402527:	55 46 00 
  40252a:	48 89 43 30          	mov    %rax,0x30(%rbx)
  40252e:	89 ef                	mov    %ebp,%edi
  402530:	e8 5b e7 ff ff       	callq  400c90 <close@plt>
  402535:	b8 ff ff ff ff       	mov    $0xffffffff,%eax
  40253a:	e9 e6 01 00 00       	jmpq   402725 <submitr+0x587>
  40253f:	48 b8 45 72 72 6f 72 	movabs $0x52203a726f727245,%rax
  402546:	3a 20 52 
  402549:	48 89 03             	mov    %rax,(%rbx)
  40254c:	48 b8 65 73 75 6c 74 	movabs $0x747320746c757365,%rax
  402553:	20 73 74 
  402556:	48 89 43 08          	mov    %rax,0x8(%rbx)
  40255a:	48 b8 72 69 6e 67 20 	movabs $0x6e6f6320676e6972,%rax
  402561:	63 6f 6e 
  402564:	48 89 43 10          	mov    %rax,0x10(%rbx)
  402568:	48 b8 74 61 69 6e 73 	movabs $0x6e6120736e696174,%rax
  40256f:	20 61 6e 
  402572:	48 89 43 18          	mov    %rax,0x18(%rbx)
  402576:	48 b8 20 69 6c 6c 65 	movabs $0x6c6167656c6c6920,%rax
  40257d:	67 61 6c 
  402580:	48 89 43 20          	mov    %rax,0x20(%rbx)
  402584:	48 b8 20 6f 72 20 75 	movabs $0x72706e7520726f20,%rax
  40258b:	6e 70 72 
  40258e:	48 89 43 28          	mov    %rax,0x28(%rbx)
  402592:	48 b8 69 6e 74 61 62 	movabs $0x20656c6261746e69,%rax
  402599:	6c 65 20 
  40259c:	48 89 43 30          	mov    %rax,0x30(%rbx)
  4025a0:	48 b8 63 68 61 72 61 	movabs $0x6574636172616863,%rax
  4025a7:	63 74 65 
  4025aa:	48 89 43 38          	mov    %rax,0x38(%rbx)
  4025ae:	66 c7 43 40 72 2e    	movw   $0x2e72,0x40(%rbx)
  4025b4:	c6 43 42 00          	movb   $0x0,0x42(%rbx)
  4025b8:	89 ef                	mov    %ebp,%edi
  4025ba:	e8 d1 e6 ff ff       	callq  400c90 <close@plt>
  4025bf:	b8 ff ff ff ff       	mov    $0xffffffff,%eax
  4025c4:	e9 5c 01 00 00       	jmpq   402725 <submitr+0x587>
  4025c9:	48 b8 45 72 72 6f 72 	movabs $0x43203a726f727245,%rax
  4025d0:	3a 20 43 
  4025d3:	48 89 03             	mov    %rax,(%rbx)
  4025d6:	48 b8 6c 69 65 6e 74 	movabs $0x6e7520746e65696c,%rax
  4025dd:	20 75 6e 
  4025e0:	48 89 43 08          	mov    %rax,0x8(%rbx)
  4025e4:	48 b8 61 62 6c 65 20 	movabs $0x206f7420656c6261,%rax
  4025eb:	74 6f 20 
  4025ee:	48 89 43 10          	mov    %rax,0x10(%rbx)
  4025f2:	48 b8 77 72 69 74 65 	movabs $0x6f74206574697277,%rax
  4025f9:	20 74 6f 
  4025fc:	48 89 43 18          	mov    %rax,0x18(%rbx)
  402600:	48 b8 20 74 68 65 20 	movabs $0x7365722065687420,%rax
  402607:	72 65 73 
  40260a:	48 89 43 20          	mov    %rax,0x20(%rbx)
  40260e:	48 b8 75 6c 74 20 73 	movabs $0x7672657320746c75,%rax
  402615:	65 72 76 
  402618:	48 89 43 28          	mov    %rax,0x28(%rbx)
  40261c:	66 c7 43 30 65 72    	movw   $0x7265,0x30(%rbx)
  402622:	c6 43 32 00          	movb   $0x0,0x32(%rbx)
  402626:	89 ef                	mov    %ebp,%edi
  402628:	e8 63 e6 ff ff       	callq  400c90 <close@plt>
  40262d:	b8 ff ff ff ff       	mov    $0xffffffff,%eax
  402632:	e9 ee 00 00 00       	jmpq   402725 <submitr+0x587>
  402637:	48 b8 45 72 72 6f 72 	movabs $0x43203a726f727245,%rax
  40263e:	3a 20 43 
  402641:	48 89 03             	mov    %rax,(%rbx)
  402644:	48 b8 6c 69 65 6e 74 	movabs $0x6e7520746e65696c,%rax
  40264b:	20 75 6e 
  40264e:	48 89 43 08          	mov    %rax,0x8(%rbx)
  402652:	48 b8 61 62 6c 65 20 	movabs $0x206f7420656c6261,%rax
  402659:	74 6f 20 
  40265c:	48 89 43 10          	mov    %rax,0x10(%rbx)
  402660:	48 b8 72 65 61 64 20 	movabs $0x7269662064616572,%rax
  402667:	66 69 72 
  40266a:	48 89 43 18          	mov    %rax,0x18(%rbx)
  40266e:	48 b8 73 74 20 68 65 	movabs $0x6564616568207473,%rax
  402675:	61 64 65 
  402678:	48 89 43 20          	mov    %rax,0x20(%rbx)
  40267c:	48 b8 72 20 66 72 6f 	movabs $0x72206d6f72662072,%rax
  402683:	6d 20 72 
  402686:	48 89 43 28          	mov    %rax,0x28(%rbx)
  40268a:	48 b8 65 73 75 6c 74 	movabs $0x657320746c757365,%rax
  402691:	20 73 65 
  402694:	48 89 43 30          	mov    %rax,0x30(%rbx)
  402698:	c7 43 38 72 76 65 72 	movl   $0x72657672,0x38(%rbx)
  40269f:	c6 43 3c 00          	movb   $0x0,0x3c(%rbx)
  4026a3:	89 ef                	mov    %ebp,%edi
  4026a5:	e8 e6 e5 ff ff       	callq  400c90 <close@plt>
  4026aa:	b8 ff ff ff ff       	mov    $0xffffffff,%eax
  4026af:	eb 74                	jmp    402725 <submitr+0x587>
  4026b1:	48 b8 45 72 72 6f 72 	movabs $0x43203a726f727245,%rax
  4026b8:	3a 20 43 
  4026bb:	48 89 03             	mov    %rax,(%rbx)
  4026be:	48 b8 6c 69 65 6e 74 	movabs $0x6e7520746e65696c,%rax
  4026c5:	20 75 6e 
  4026c8:	48 89 43 08          	mov    %rax,0x8(%rbx)
  4026cc:	48 b8 61 62 6c 65 20 	movabs $0x206f7420656c6261,%rax
  4026d3:	74 6f 20 
  4026d6:	48 89 43 10          	mov    %rax,0x10(%rbx)
  4026da:	48 b8 72 65 61 64 20 	movabs $0x6165682064616572,%rax
  4026e1:	68 65 61 
  4026e4:	48 89 43 18          	mov    %rax,0x18(%rbx)
  4026e8:	48 b8 64 65 72 73 20 	movabs $0x6f72662073726564,%rax
  4026ef:	66 72 6f 
  4026f2:	48 89 43 20          	mov    %rax,0x20(%rbx)
  4026f6:	48 b8 6d 20 74 68 65 	movabs $0x657220656874206d,%rax
  4026fd:	20 72 65 
  402700:	48 89 43 28          	mov    %rax,0x28(%rbx)
  402704:	48 b8 73 75 6c 74 20 	movabs $0x72657320746c7573,%rax
  40270b:	73 65 72 
  40270e:	48 89 43 30          	mov    %rax,0x30(%rbx)
  402712:	c7 43 38 76 65 72 00 	movl   $0x726576,0x38(%rbx)
  402719:	89 ef                	mov    %ebp,%edi
  40271b:	e8 70 e5 ff ff       	callq  400c90 <close@plt>
  402720:	b8 ff ff ff ff       	mov    $0xffffffff,%eax
  402725:	48 81 c4 58 a0 00 00 	add    $0xa058,%rsp
  40272c:	5b                   	pop    %rbx
  40272d:	5d                   	pop    %rbp
  40272e:	41 5c                	pop    %r12
  402730:	41 5d                	pop    %r13
  402732:	41 5e                	pop    %r14
  402734:	41 5f                	pop    %r15
  402736:	c3                   	retq   
  402737:	85 c0                	test   %eax,%eax
  402739:	74 51                	je     40278c <submitr+0x5ee>
  40273b:	48 8d b4 24 30 60 00 	lea    0x6030(%rsp),%rsi
  402742:	00 
  402743:	48 8d bc 24 30 80 00 	lea    0x8030(%rsp),%rdi
  40274a:	00 
  40274b:	ba 00 20 00 00       	mov    $0x2000,%edx
  402750:	e8 ca f9 ff ff       	callq  40211f <rio_readlineb>
  402755:	48 85 c0             	test   %rax,%rax
  402758:	0f 8e 53 ff ff ff    	jle    4026b1 <submitr+0x513>
  40275e:	0f b6 94 24 30 60 00 	movzbl 0x6030(%rsp),%edx
  402765:	00 
  402766:	b8 0d 00 00 00       	mov    $0xd,%eax
  40276b:	29 d0                	sub    %edx,%eax
  40276d:	75 c8                	jne    402737 <submitr+0x599>
  40276f:	0f b6 94 24 31 60 00 	movzbl 0x6031(%rsp),%edx
  402776:	00 
  402777:	b8 0a 00 00 00       	mov    $0xa,%eax
  40277c:	29 d0                	sub    %edx,%eax
  40277e:	75 b7                	jne    402737 <submitr+0x599>
  402780:	0f b6 84 24 32 60 00 	movzbl 0x6032(%rsp),%eax
  402787:	00 
  402788:	f7 d8                	neg    %eax
  40278a:	eb ab                	jmp    402737 <submitr+0x599>
  40278c:	48 8d b4 24 30 60 00 	lea    0x6030(%rsp),%rsi
  402793:	00 
  402794:	48 8d bc 24 30 80 00 	lea    0x8030(%rsp),%rdi
  40279b:	00 
  40279c:	ba 00 20 00 00       	mov    $0x2000,%edx
  4027a1:	e8 79 f9 ff ff       	callq  40211f <rio_readlineb>
  4027a6:	48 85 c0             	test   %rax,%rax
  4027a9:	7e 67                	jle    402812 <submitr+0x674>
  4027ab:	8b 94 24 2c 20 00 00 	mov    0x202c(%rsp),%edx
  4027b2:	81 fa c8 00 00 00    	cmp    $0xc8,%edx
  4027b8:	0f 85 d7 00 00 00    	jne    402895 <submitr+0x6f7>
  4027be:	48 8d b4 24 30 60 00 	lea    0x6030(%rsp),%rsi
  4027c5:	00 
  4027c6:	48 89 df             	mov    %rbx,%rdi
  4027c9:	e8 52 e4 ff ff       	callq  400c20 <strcpy@plt>
  4027ce:	89 ef                	mov    %ebp,%edi
  4027d0:	e8 bb e4 ff ff       	callq  400c90 <close@plt>
  4027d5:	0f b6 03             	movzbl (%rbx),%eax
  4027d8:	ba 4f 00 00 00       	mov    $0x4f,%edx
  4027dd:	29 c2                	sub    %eax,%edx
  4027df:	0f 85 da 00 00 00    	jne    4028bf <submitr+0x721>
  4027e5:	0f b6 4b 01          	movzbl 0x1(%rbx),%ecx
  4027e9:	b8 4b 00 00 00       	mov    $0x4b,%eax
  4027ee:	29 c8                	sub    %ecx,%eax
  4027f0:	0f 85 cb 00 00 00    	jne    4028c1 <submitr+0x723>
  4027f6:	0f b6 4b 02          	movzbl 0x2(%rbx),%ecx
  4027fa:	b8 0a 00 00 00       	mov    $0xa,%eax
  4027ff:	29 c8                	sub    %ecx,%eax
  402801:	0f 85 ba 00 00 00    	jne    4028c1 <submitr+0x723>
  402807:	0f b6 43 03          	movzbl 0x3(%rbx),%eax
  40280b:	f7 d8                	neg    %eax
  40280d:	e9 af 00 00 00       	jmpq   4028c1 <submitr+0x723>
  402812:	48 b8 45 72 72 6f 72 	movabs $0x43203a726f727245,%rax
  402819:	3a 20 43 
  40281c:	48 89 03             	mov    %rax,(%rbx)
  40281f:	48 b8 6c 69 65 6e 74 	movabs $0x6e7520746e65696c,%rax
  402826:	20 75 6e 
  402829:	48 89 43 08          	mov    %rax,0x8(%rbx)
  40282d:	48 b8 61 62 6c 65 20 	movabs $0x206f7420656c6261,%rax
  402834:	74 6f 20 
  402837:	48 89 43 10          	mov    %rax,0x10(%rbx)
  40283b:	48 b8 72 65 61 64 20 	movabs $0x6174732064616572,%rax
  402842:	73 74 61 
  402845:	48 89 43 18          	mov    %rax,0x18(%rbx)
  402849:	48 b8 74 75 73 20 6d 	movabs $0x7373656d20737574,%rax
  402850:	65 73 73 
  402853:	48 89 43 20          	mov    %rax,0x20(%rbx)
  402857:	48 b8 61 67 65 20 66 	movabs $0x6d6f726620656761,%rax
  40285e:	72 6f 6d 
  402861:	48 89 43 28          	mov    %rax,0x28(%rbx)
  402865:	48 b8 20 72 65 73 75 	movabs $0x20746c7573657220,%rax
  40286c:	6c 74 20 
  40286f:	48 89 43 30          	mov    %rax,0x30(%rbx)
  402873:	c7 43 38 73 65 72 76 	movl   $0x76726573,0x38(%rbx)
  40287a:	66 c7 43 3c 65 72    	movw   $0x7265,0x3c(%rbx)
  402880:	c6 43 3e 00          	movb   $0x0,0x3e(%rbx)
  402884:	89 ef                	mov    %ebp,%edi
  402886:	e8 05 e4 ff ff       	callq  400c90 <close@plt>
  40288b:	b8 ff ff ff ff       	mov    $0xffffffff,%eax
  402890:	e9 90 fe ff ff       	jmpq   402725 <submitr+0x587>
  402895:	48 8d 4c 24 20       	lea    0x20(%rsp),%rcx
  40289a:	48 8d 35 27 0b 00 00 	lea    0xb27(%rip),%rsi        # 4033c8 <trans_char+0x78>
  4028a1:	48 89 df             	mov    %rbx,%rdi
  4028a4:	b8 00 00 00 00       	mov    $0x0,%eax
  4028a9:	e8 f2 e4 ff ff       	callq  400da0 <sprintf@plt>
  4028ae:	89 ef                	mov    %ebp,%edi
  4028b0:	e8 db e3 ff ff       	callq  400c90 <close@plt>
  4028b5:	b8 ff ff ff ff       	mov    $0xffffffff,%eax
  4028ba:	e9 66 fe ff ff       	jmpq   402725 <submitr+0x587>
  4028bf:	89 d0                	mov    %edx,%eax
  4028c1:	f7 d8                	neg    %eax
  4028c3:	0f 84 5c fe ff ff    	je     402725 <submitr+0x587>
  4028c9:	b9 05 00 00 00       	mov    $0x5,%ecx
  4028ce:	48 8d 3d 3b 0b 00 00 	lea    0xb3b(%rip),%rdi        # 403410 <trans_char+0xc0>
  4028d5:	48 89 de             	mov    %rbx,%rsi
  4028d8:	f3 a6                	repz cmpsb %es:(%rdi),%ds:(%rsi)
  4028da:	0f 97 c0             	seta   %al
  4028dd:	0f 92 c1             	setb   %cl
  4028e0:	29 c8                	sub    %ecx,%eax
  4028e2:	0f be c0             	movsbl %al,%eax
  4028e5:	85 c0                	test   %eax,%eax
  4028e7:	0f 84 38 fe ff ff    	je     402725 <submitr+0x587>
  4028ed:	85 d2                	test   %edx,%edx
  4028ef:	75 13                	jne    402904 <submitr+0x766>
  4028f1:	0f b6 43 01          	movzbl 0x1(%rbx),%eax
  4028f5:	ba 4b 00 00 00       	mov    $0x4b,%edx
  4028fa:	29 c2                	sub    %eax,%edx
  4028fc:	75 06                	jne    402904 <submitr+0x766>
  4028fe:	0f b6 53 02          	movzbl 0x2(%rbx),%edx
  402902:	f7 da                	neg    %edx
  402904:	89 d0                	mov    %edx,%eax
  402906:	f7 d8                	neg    %eax
  402908:	0f 84 17 fe ff ff    	je     402725 <submitr+0x587>
  40290e:	b8 ff ff ff ff       	mov    $0xffffffff,%eax
  402913:	e9 0d fe ff ff       	jmpq   402725 <submitr+0x587>

0000000000402918 <init_timeout>:
  402918:	85 ff                	test   %edi,%edi
  40291a:	74 20                	je     40293c <init_timeout+0x24>
  40291c:	53                   	push   %rbx
  40291d:	89 fb                	mov    %edi,%ebx
  40291f:	85 ff                	test   %edi,%edi
  402921:	78 1b                	js     40293e <init_timeout+0x26>
  402923:	48 8d 35 05 f6 ff ff 	lea    -0x9fb(%rip),%rsi        # 401f2f <sigalrm_handler>
  40292a:	bf 0e 00 00 00       	mov    $0xe,%edi
  40292f:	e8 7c e3 ff ff       	callq  400cb0 <signal@plt>
  402934:	89 df                	mov    %ebx,%edi
  402936:	e8 45 e3 ff ff       	callq  400c80 <alarm@plt>
  40293b:	5b                   	pop    %rbx
  40293c:	f3 c3                	repz retq 
  40293e:	bb 00 00 00 00       	mov    $0x0,%ebx
  402943:	eb de                	jmp    402923 <init_timeout+0xb>

0000000000402945 <init_driver>:
  402945:	41 54                	push   %r12
  402947:	55                   	push   %rbp
  402948:	53                   	push   %rbx
  402949:	48 83 ec 10          	sub    $0x10,%rsp
  40294d:	48 89 fd             	mov    %rdi,%rbp
  402950:	be 01 00 00 00       	mov    $0x1,%esi
  402955:	bf 0d 00 00 00       	mov    $0xd,%edi
  40295a:	e8 51 e3 ff ff       	callq  400cb0 <signal@plt>
  40295f:	be 01 00 00 00       	mov    $0x1,%esi
  402964:	bf 1d 00 00 00       	mov    $0x1d,%edi
  402969:	e8 42 e3 ff ff       	callq  400cb0 <signal@plt>
  40296e:	be 01 00 00 00       	mov    $0x1,%esi
  402973:	bf 1d 00 00 00       	mov    $0x1d,%edi
  402978:	e8 33 e3 ff ff       	callq  400cb0 <signal@plt>
  40297d:	ba 00 00 00 00       	mov    $0x0,%edx
  402982:	be 01 00 00 00       	mov    $0x1,%esi
  402987:	bf 02 00 00 00       	mov    $0x2,%edi
  40298c:	e8 3f e4 ff ff       	callq  400dd0 <socket@plt>
  402991:	85 c0                	test   %eax,%eax
  402993:	0f 88 80 00 00 00    	js     402a19 <init_driver+0xd4>
  402999:	89 c3                	mov    %eax,%ebx
  40299b:	48 8d 3d 73 0a 00 00 	lea    0xa73(%rip),%rdi        # 403415 <trans_char+0xc5>
  4029a2:	e8 19 e3 ff ff       	callq  400cc0 <gethostbyname@plt>
  4029a7:	48 85 c0             	test   %rax,%rax
  4029aa:	0f 84 b5 00 00 00    	je     402a65 <init_driver+0x120>
  4029b0:	48 c7 04 24 00 00 00 	movq   $0x0,(%rsp)
  4029b7:	00 
  4029b8:	48 c7 44 24 08 00 00 	movq   $0x0,0x8(%rsp)
  4029bf:	00 00 
  4029c1:	66 c7 04 24 02 00    	movw   $0x2,(%rsp)
  4029c7:	48 8b 48 18          	mov    0x18(%rax),%rcx
  4029cb:	48 63 50 14          	movslq 0x14(%rax),%rdx
  4029cf:	48 8d 74 24 04       	lea    0x4(%rsp),%rsi
  4029d4:	48 8b 39             	mov    (%rcx),%rdi
  4029d7:	e8 74 e3 ff ff       	callq  400d50 <bcopy@plt>
  4029dc:	66 c7 44 24 02 3c 9a 	movw   $0x9a3c,0x2(%rsp)
  4029e3:	ba 10 00 00 00       	mov    $0x10,%edx
  4029e8:	48 89 e6             	mov    %rsp,%rsi
  4029eb:	89 df                	mov    %ebx,%edi
  4029ed:	e8 ce e3 ff ff       	callq  400dc0 <connect@plt>
  4029f2:	85 c0                	test   %eax,%eax
  4029f4:	0f 88 d3 00 00 00    	js     402acd <init_driver+0x188>
  4029fa:	89 df                	mov    %ebx,%edi
  4029fc:	e8 8f e2 ff ff       	callq  400c90 <close@plt>
  402a01:	66 c7 45 00 4f 4b    	movw   $0x4b4f,0x0(%rbp)
  402a07:	c6 45 02 00          	movb   $0x0,0x2(%rbp)
  402a0b:	b8 00 00 00 00       	mov    $0x0,%eax
  402a10:	48 83 c4 10          	add    $0x10,%rsp
  402a14:	5b                   	pop    %rbx
  402a15:	5d                   	pop    %rbp
  402a16:	41 5c                	pop    %r12
  402a18:	c3                   	retq   
  402a19:	48 b8 45 72 72 6f 72 	movabs $0x43203a726f727245,%rax
  402a20:	3a 20 43 
  402a23:	48 89 45 00          	mov    %rax,0x0(%rbp)
  402a27:	48 b8 6c 69 65 6e 74 	movabs $0x6e7520746e65696c,%rax
  402a2e:	20 75 6e 
  402a31:	48 89 45 08          	mov    %rax,0x8(%rbp)
  402a35:	48 b8 61 62 6c 65 20 	movabs $0x206f7420656c6261,%rax
  402a3c:	74 6f 20 
  402a3f:	48 89 45 10          	mov    %rax,0x10(%rbp)
  402a43:	48 b8 63 72 65 61 74 	movabs $0x7320657461657263,%rax
  402a4a:	65 20 73 
  402a4d:	48 89 45 18          	mov    %rax,0x18(%rbp)
  402a51:	c7 45 20 6f 63 6b 65 	movl   $0x656b636f,0x20(%rbp)
  402a58:	66 c7 45 24 74 00    	movw   $0x74,0x24(%rbp)
  402a5e:	b8 ff ff ff ff       	mov    $0xffffffff,%eax
  402a63:	eb ab                	jmp    402a10 <init_driver+0xcb>
  402a65:	48 b8 45 72 72 6f 72 	movabs $0x44203a726f727245,%rax
  402a6c:	3a 20 44 
  402a6f:	48 89 45 00          	mov    %rax,0x0(%rbp)
  402a73:	48 b8 4e 53 20 69 73 	movabs $0x6e7520736920534e,%rax
  402a7a:	20 75 6e 
  402a7d:	48 89 45 08          	mov    %rax,0x8(%rbp)
  402a81:	48 b8 61 62 6c 65 20 	movabs $0x206f7420656c6261,%rax
  402a88:	74 6f 20 
  402a8b:	48 89 45 10          	mov    %rax,0x10(%rbp)
  402a8f:	48 b8 72 65 73 6f 6c 	movabs $0x2065766c6f736572,%rax
  402a96:	76 65 20 
  402a99:	48 89 45 18          	mov    %rax,0x18(%rbp)
  402a9d:	48 b8 73 65 72 76 65 	movabs $0x6120726576726573,%rax
  402aa4:	72 20 61 
  402aa7:	48 89 45 20          	mov    %rax,0x20(%rbp)
  402aab:	c7 45 28 64 64 72 65 	movl   $0x65726464,0x28(%rbp)
  402ab2:	66 c7 45 2c 73 73    	movw   $0x7373,0x2c(%rbp)
  402ab8:	c6 45 2e 00          	movb   $0x0,0x2e(%rbp)
  402abc:	89 df                	mov    %ebx,%edi
  402abe:	e8 cd e1 ff ff       	callq  400c90 <close@plt>
  402ac3:	b8 ff ff ff ff       	mov    $0xffffffff,%eax
  402ac8:	e9 43 ff ff ff       	jmpq   402a10 <init_driver+0xcb>
  402acd:	48 b8 45 72 72 6f 72 	movabs $0x55203a726f727245,%rax
  402ad4:	3a 20 55 
  402ad7:	48 89 45 00          	mov    %rax,0x0(%rbp)
  402adb:	48 b8 6e 61 62 6c 65 	movabs $0x6f7420656c62616e,%rax
  402ae2:	20 74 6f 
  402ae5:	48 89 45 08          	mov    %rax,0x8(%rbp)
  402ae9:	48 b8 20 63 6f 6e 6e 	movabs $0x7463656e6e6f6320,%rax
  402af0:	65 63 74 
  402af3:	48 89 45 10          	mov    %rax,0x10(%rbp)
  402af7:	48 b8 20 74 6f 20 73 	movabs $0x76726573206f7420,%rax
  402afe:	65 72 76 
  402b01:	48 89 45 18          	mov    %rax,0x18(%rbp)
  402b05:	66 c7 45 20 65 72    	movw   $0x7265,0x20(%rbp)
  402b0b:	c6 45 22 00          	movb   $0x0,0x22(%rbp)
  402b0f:	89 df                	mov    %ebx,%edi
  402b11:	e8 7a e1 ff ff       	callq  400c90 <close@plt>
  402b16:	b8 ff ff ff ff       	mov    $0xffffffff,%eax
  402b1b:	e9 f0 fe ff ff       	jmpq   402a10 <init_driver+0xcb>

0000000000402b20 <driver_post>:
  402b20:	53                   	push   %rbx
  402b21:	4c 89 cb             	mov    %r9,%rbx
  402b24:	45 85 c0             	test   %r8d,%r8d
  402b27:	75 18                	jne    402b41 <driver_post+0x21>
  402b29:	48 85 ff             	test   %rdi,%rdi
  402b2c:	74 05                	je     402b33 <driver_post+0x13>
  402b2e:	80 3f 00             	cmpb   $0x0,(%rdi)
  402b31:	75 32                	jne    402b65 <driver_post+0x45>
  402b33:	66 c7 03 4f 4b       	movw   $0x4b4f,(%rbx)
  402b38:	c6 43 02 00          	movb   $0x0,0x2(%rbx)
  402b3c:	44 89 c0             	mov    %r8d,%eax
  402b3f:	5b                   	pop    %rbx
  402b40:	c3                   	retq   
  402b41:	48 89 ce             	mov    %rcx,%rsi
  402b44:	48 8d 3d e2 08 00 00 	lea    0x8e2(%rip),%rdi        # 40342d <trans_char+0xdd>
  402b4b:	b8 00 00 00 00       	mov    $0x0,%eax
  402b50:	e8 0b e1 ff ff       	callq  400c60 <printf@plt>
  402b55:	66 c7 03 4f 4b       	movw   $0x4b4f,(%rbx)
  402b5a:	c6 43 02 00          	movb   $0x0,0x2(%rbx)
  402b5e:	b8 00 00 00 00       	mov    $0x0,%eax
  402b63:	eb da                	jmp    402b3f <driver_post+0x1f>
  402b65:	48 83 ec 08          	sub    $0x8,%rsp
  402b69:	41 51                	push   %r9
  402b6b:	49 89 c9             	mov    %rcx,%r9
  402b6e:	49 89 d0             	mov    %rdx,%r8
  402b71:	48 89 f9             	mov    %rdi,%rcx
  402b74:	48 89 f2             	mov    %rsi,%rdx
  402b77:	be 9a 3c 00 00       	mov    $0x3c9a,%esi
  402b7c:	48 8d 3d 92 08 00 00 	lea    0x892(%rip),%rdi        # 403415 <trans_char+0xc5>
  402b83:	e8 16 f6 ff ff       	callq  40219e <submitr>
  402b88:	48 83 c4 10          	add    $0x10,%rsp
  402b8c:	eb b1                	jmp    402b3f <driver_post+0x1f>

0000000000402b8e <check>:
  402b8e:	89 f8                	mov    %edi,%eax
  402b90:	c1 e8 1c             	shr    $0x1c,%eax
  402b93:	85 c0                	test   %eax,%eax
  402b95:	74 1d                	je     402bb4 <check+0x26>
  402b97:	b9 00 00 00 00       	mov    $0x0,%ecx
  402b9c:	83 f9 1f             	cmp    $0x1f,%ecx
  402b9f:	7f 0d                	jg     402bae <check+0x20>
  402ba1:	89 f8                	mov    %edi,%eax
  402ba3:	d3 e8                	shr    %cl,%eax
  402ba5:	3c 0a                	cmp    $0xa,%al
  402ba7:	74 11                	je     402bba <check+0x2c>
  402ba9:	83 c1 08             	add    $0x8,%ecx
  402bac:	eb ee                	jmp    402b9c <check+0xe>
  402bae:	b8 01 00 00 00       	mov    $0x1,%eax
  402bb3:	c3                   	retq   
  402bb4:	b8 00 00 00 00       	mov    $0x0,%eax
  402bb9:	c3                   	retq   
  402bba:	b8 00 00 00 00       	mov    $0x0,%eax
  402bbf:	c3                   	retq   

0000000000402bc0 <gencookie>:
  402bc0:	53                   	push   %rbx
  402bc1:	83 c7 01             	add    $0x1,%edi
  402bc4:	e8 37 e0 ff ff       	callq  400c00 <srandom@plt>
  402bc9:	e8 42 e1 ff ff       	callq  400d10 <random@plt>
  402bce:	89 c3                	mov    %eax,%ebx
  402bd0:	89 c7                	mov    %eax,%edi
  402bd2:	e8 b7 ff ff ff       	callq  402b8e <check>
  402bd7:	85 c0                	test   %eax,%eax
  402bd9:	74 ee                	je     402bc9 <gencookie+0x9>
  402bdb:	89 d8                	mov    %ebx,%eax
  402bdd:	5b                   	pop    %rbx
  402bde:	c3                   	retq   
  402bdf:	90                   	nop

0000000000402be0 <__libc_csu_init>:
  402be0:	41 57                	push   %r15
  402be2:	41 56                	push   %r14
  402be4:	41 89 ff             	mov    %edi,%r15d
  402be7:	41 55                	push   %r13
  402be9:	41 54                	push   %r12
  402beb:	4c 8d 25 16 12 20 00 	lea    0x201216(%rip),%r12        # 603e08 <__frame_dummy_init_array_entry>
  402bf2:	55                   	push   %rbp
  402bf3:	48 8d 2d 16 12 20 00 	lea    0x201216(%rip),%rbp        # 603e10 <__init_array_end>
  402bfa:	53                   	push   %rbx
  402bfb:	49 89 f6             	mov    %rsi,%r14
  402bfe:	49 89 d5             	mov    %rdx,%r13
  402c01:	4c 29 e5             	sub    %r12,%rbp
  402c04:	48 83 ec 08          	sub    $0x8,%rsp
  402c08:	48 c1 fd 03          	sar    $0x3,%rbp
  402c0c:	e8 9f df ff ff       	callq  400bb0 <_init>
  402c11:	48 85 ed             	test   %rbp,%rbp
  402c14:	74 20                	je     402c36 <__libc_csu_init+0x56>
  402c16:	31 db                	xor    %ebx,%ebx
  402c18:	0f 1f 84 00 00 00 00 	nopl   0x0(%rax,%rax,1)
  402c1f:	00 
  402c20:	4c 89 ea             	mov    %r13,%rdx
  402c23:	4c 89 f6             	mov    %r14,%rsi
  402c26:	44 89 ff             	mov    %r15d,%edi
  402c29:	41 ff 14 dc          	callq  *(%r12,%rbx,8)
  402c2d:	48 83 c3 01          	add    $0x1,%rbx
  402c31:	48 39 dd             	cmp    %rbx,%rbp
  402c34:	75 ea                	jne    402c20 <__libc_csu_init+0x40>
  402c36:	48 83 c4 08          	add    $0x8,%rsp
  402c3a:	5b                   	pop    %rbx
  402c3b:	5d                   	pop    %rbp
  402c3c:	41 5c                	pop    %r12
  402c3e:	41 5d                	pop    %r13
  402c40:	41 5e                	pop    %r14
  402c42:	41 5f                	pop    %r15
  402c44:	c3                   	retq   
  402c45:	90                   	nop
  402c46:	66 2e 0f 1f 84 00 00 	nopw   %cs:0x0(%rax,%rax,1)
  402c4d:	00 00 00 

0000000000402c50 <__libc_csu_fini>:
  402c50:	f3 c3                	repz retq 

Disassembly of section .fini:

0000000000402c54 <_fini>:
  402c54:	48 83 ec 08          	sub    $0x8,%rsp
  402c58:	48 83 c4 08          	add    $0x8,%rsp
  402c5c:	c3                   	retq   
